
Lab2.elf:     file format elf32-littlearm

Sections:
Idx Name          Size      VMA       LMA       File off  Algn
  0 .isr_vector   000001bc  08000000  08000000  00001000  2**0
                  CONTENTS, ALLOC, LOAD, READONLY, DATA
  1 .text         00003618  080001bc  080001bc  000011bc  2**2
                  CONTENTS, ALLOC, LOAD, READONLY, CODE
  2 .rodata       00000040  080037d4  080037d4  000047d4  2**2
                  CONTENTS, ALLOC, LOAD, READONLY, DATA
  3 .ARM.extab    00000000  08003814  08003814  0000500c  2**0
                  CONTENTS
  4 .ARM          00000000  08003814  08003814  0000500c  2**0
                  CONTENTS
  5 .preinit_array 00000000  08003814  08003814  0000500c  2**0
                  CONTENTS, ALLOC, LOAD, DATA
  6 .init_array   00000004  08003814  08003814  00004814  2**2
                  CONTENTS, ALLOC, LOAD, READONLY, DATA
  7 .fini_array   00000004  08003818  08003818  00004818  2**2
                  CONTENTS, ALLOC, LOAD, READONLY, DATA
  8 .data         0000000c  20000000  0800381c  00005000  2**2
                  CONTENTS, ALLOC, LOAD, DATA
  9 .bss          0000008c  2000000c  08003828  0000500c  2**2
                  ALLOC
 10 ._user_heap_stack 00000600  20000098  08003828  00005098  2**0
                  ALLOC
 11 .ARM.attributes 00000030  00000000  00000000  0000500c  2**0
                  CONTENTS, READONLY
 12 .debug_info   00008f0c  00000000  00000000  0000503c  2**0
                  CONTENTS, READONLY, DEBUGGING, OCTETS
 13 .debug_abbrev 0000178f  00000000  00000000  0000df48  2**0
                  CONTENTS, READONLY, DEBUGGING, OCTETS
 14 .debug_aranges 00000910  00000000  00000000  0000f6d8  2**3
                  CONTENTS, READONLY, DEBUGGING, OCTETS
 15 .debug_rnglists 000006c1  00000000  00000000  0000ffe8  2**0
                  CONTENTS, READONLY, DEBUGGING, OCTETS
 16 .debug_macro  00029b44  00000000  00000000  000106a9  2**0
                  CONTENTS, READONLY, DEBUGGING, OCTETS
 17 .debug_line   000099e7  00000000  00000000  0003a1ed  2**0
                  CONTENTS, READONLY, DEBUGGING, OCTETS
 18 .debug_str    00105ffd  00000000  00000000  00043bd4  2**0
                  CONTENTS, READONLY, DEBUGGING, OCTETS
 19 .comment      00000043  00000000  00000000  00149bd1  2**0
                  CONTENTS, READONLY
 20 .debug_frame  00002434  00000000  00000000  00149c14  2**2
                  CONTENTS, READONLY, DEBUGGING, OCTETS
 21 .debug_line_str 0000005b  00000000  00000000  0014c048  2**0
                  CONTENTS, READONLY, DEBUGGING, OCTETS

Disassembly of section .text:

080001bc <__do_global_dtors_aux>:
 80001bc:	b510      	push	{r4, lr}
 80001be:	4c05      	ldr	r4, [pc, #20]	@ (80001d4 <__do_global_dtors_aux+0x18>)
 80001c0:	7823      	ldrb	r3, [r4, #0]
 80001c2:	b933      	cbnz	r3, 80001d2 <__do_global_dtors_aux+0x16>
 80001c4:	4b04      	ldr	r3, [pc, #16]	@ (80001d8 <__do_global_dtors_aux+0x1c>)
 80001c6:	b113      	cbz	r3, 80001ce <__do_global_dtors_aux+0x12>
 80001c8:	4804      	ldr	r0, [pc, #16]	@ (80001dc <__do_global_dtors_aux+0x20>)
 80001ca:	f3af 8000 	nop.w
 80001ce:	2301      	movs	r3, #1
 80001d0:	7023      	strb	r3, [r4, #0]
 80001d2:	bd10      	pop	{r4, pc}
 80001d4:	2000000c 	.word	0x2000000c
 80001d8:	00000000 	.word	0x00000000
 80001dc:	080037bc 	.word	0x080037bc

080001e0 <frame_dummy>:
 80001e0:	b508      	push	{r3, lr}
 80001e2:	4b03      	ldr	r3, [pc, #12]	@ (80001f0 <frame_dummy+0x10>)
 80001e4:	b11b      	cbz	r3, 80001ee <frame_dummy+0xe>
 80001e6:	4903      	ldr	r1, [pc, #12]	@ (80001f4 <frame_dummy+0x14>)
 80001e8:	4803      	ldr	r0, [pc, #12]	@ (80001f8 <frame_dummy+0x18>)
 80001ea:	f3af 8000 	nop.w
 80001ee:	bd08      	pop	{r3, pc}
 80001f0:	00000000 	.word	0x00000000
 80001f4:	20000010 	.word	0x20000010
 80001f8:	080037bc 	.word	0x080037bc

080001fc <HAL_GPIO_EXTI_Callback>:
/* USER CODE END PFP */

/* Private user code ---------------------------------------------------------*/
/* USER CODE BEGIN 0 */
void HAL_GPIO_EXTI_Callback(uint16_t GPIO_Pin)
{
 80001fc:	b580      	push	{r7, lr}
 80001fe:	b082      	sub	sp, #8
 8000200:	af00      	add	r7, sp, #0
 8000202:	4603      	mov	r3, r0
 8000204:	80fb      	strh	r3, [r7, #6]
	LEDState = !LEDState;
 8000206:	4b0d      	ldr	r3, [pc, #52]	@ (800023c <HAL_GPIO_EXTI_Callback+0x40>)
 8000208:	781b      	ldrb	r3, [r3, #0]
 800020a:	2b00      	cmp	r3, #0
 800020c:	bf14      	ite	ne
 800020e:	2301      	movne	r3, #1
 8000210:	2300      	moveq	r3, #0
 8000212:	b2db      	uxtb	r3, r3
 8000214:	f083 0301 	eor.w	r3, r3, #1
 8000218:	b2db      	uxtb	r3, r3
 800021a:	f003 0301 	and.w	r3, r3, #1
 800021e:	b2da      	uxtb	r2, r3
 8000220:	4b06      	ldr	r3, [pc, #24]	@ (800023c <HAL_GPIO_EXTI_Callback+0x40>)
 8000222:	701a      	strb	r2, [r3, #0]
	HAL_GPIO_WritePin(LED_GPIO_Port, LED_Pin, LEDState);
 8000224:	4b05      	ldr	r3, [pc, #20]	@ (800023c <HAL_GPIO_EXTI_Callback+0x40>)
 8000226:	781b      	ldrb	r3, [r3, #0]
 8000228:	461a      	mov	r2, r3
 800022a:	f44f 4180 	mov.w	r1, #16384	@ 0x4000
 800022e:	4804      	ldr	r0, [pc, #16]	@ (8000240 <HAL_GPIO_EXTI_Callback+0x44>)
 8000230:	f001 fdec 	bl	8001e0c <HAL_GPIO_WritePin>
}
 8000234:	bf00      	nop
 8000236:	3708      	adds	r7, #8
 8000238:	46bd      	mov	sp, r7
 800023a:	bd80      	pop	{r7, pc}
 800023c:	20000090 	.word	0x20000090
 8000240:	48000400 	.word	0x48000400

08000244 <main>:
/**
  * @brief  The application entry point.
  * @retval int
  */
int main(void)
{
 8000244:	b580      	push	{r7, lr}
 8000246:	b084      	sub	sp, #16
 8000248:	af00      	add	r7, sp, #0
  /* USER CODE END 1 */

  /* MCU Configuration--------------------------------------------------------*/

  /* Reset of all peripherals, Initializes the Flash interface and the Systick. */
  HAL_Init();
 800024a:	f000 fa24 	bl	8000696 <HAL_Init>
  /* USER CODE BEGIN Init */

  /* USER CODE END Init */

  /* Configure the system clock */
  SystemClock_Config();
 800024e:	f000 f833 	bl	80002b8 <SystemClock_Config>
  /* USER CODE BEGIN SysInit */

  /* USER CODE END SysInit */

  /* Initialize all configured peripherals */
  MX_GPIO_Init();
 8000252:	f000 f8e7 	bl	8000424 <MX_GPIO_Init>
  MX_ADC1_Init();
 8000256:	f000 f881 	bl	800035c <MX_ADC1_Init>
  float VREF;
  while (1)
  {

    /* USER CODE END WHILE */
	  HAL_ADC_Start(&hadc1);
 800025a:	4814      	ldr	r0, [pc, #80]	@ (80002ac <main+0x68>)
 800025c:	f000 fdb0 	bl	8000dc0 <HAL_ADC_Start>
	  if(HAL_ADC_PollForConversion(&hadc1, 300) == HAL_OK){
 8000260:	f44f 7196 	mov.w	r1, #300	@ 0x12c
 8000264:	4811      	ldr	r0, [pc, #68]	@ (80002ac <main+0x68>)
 8000266:	f000 fe0e 	bl	8000e86 <HAL_ADC_PollForConversion>
 800026a:	4603      	mov	r3, r0
 800026c:	2b00      	cmp	r3, #0
 800026e:	d1f4      	bne.n	800025a <main+0x16>
		  rawVoltage = HAL_ADC_GetValue(&hadc1);
 8000270:	480e      	ldr	r0, [pc, #56]	@ (80002ac <main+0x68>)
 8000272:	f000 fe97 	bl	8000fa4 <HAL_ADC_GetValue>
 8000276:	4603      	mov	r3, r0
 8000278:	81fb      	strh	r3, [r7, #14]
		  uint16_t VREFINT_CAL = *((uint16_t *) 0x1FFF75AA); //the calibration value
 800027a:	4b0d      	ldr	r3, [pc, #52]	@ (80002b0 <main+0x6c>)
 800027c:	881b      	ldrh	r3, [r3, #0]
 800027e:	81bb      	strh	r3, [r7, #12]
		  float VREF_Charac = 3.0; //voltage characterized at VREFINT during manufacturing, specified in datasheet
 8000280:	4b0c      	ldr	r3, [pc, #48]	@ (80002b4 <main+0x70>)
 8000282:	60bb      	str	r3, [r7, #8]
		  VREF = VREF_Charac*((float)VREFINT_CAL/(float)rawVoltage);
 8000284:	89bb      	ldrh	r3, [r7, #12]
 8000286:	ee07 3a90 	vmov	s15, r3
 800028a:	eef8 6a67 	vcvt.f32.u32	s13, s15
 800028e:	89fb      	ldrh	r3, [r7, #14]
 8000290:	ee07 3a90 	vmov	s15, r3
 8000294:	eeb8 7a67 	vcvt.f32.u32	s14, s15
 8000298:	eec6 7a87 	vdiv.f32	s15, s13, s14
 800029c:	ed97 7a02 	vldr	s14, [r7, #8]
 80002a0:	ee67 7a27 	vmul.f32	s15, s14, s15
 80002a4:	edc7 7a01 	vstr	s15, [r7, #4]
	  HAL_ADC_Start(&hadc1);
 80002a8:	e7d7      	b.n	800025a <main+0x16>
 80002aa:	bf00      	nop
 80002ac:	20000028 	.word	0x20000028
 80002b0:	1fff75aa 	.word	0x1fff75aa
 80002b4:	40400000 	.word	0x40400000

080002b8 <SystemClock_Config>:
/**
  * @brief System Clock Configuration
  * @retval None
  */
void SystemClock_Config(void)
{
 80002b8:	b580      	push	{r7, lr}
 80002ba:	b096      	sub	sp, #88	@ 0x58
 80002bc:	af00      	add	r7, sp, #0
  RCC_OscInitTypeDef RCC_OscInitStruct = {0};
 80002be:	f107 0314 	add.w	r3, r7, #20
 80002c2:	2244      	movs	r2, #68	@ 0x44
 80002c4:	2100      	movs	r1, #0
 80002c6:	4618      	mov	r0, r3
 80002c8:	f003 fa4c 	bl	8003764 <memset>
  RCC_ClkInitTypeDef RCC_ClkInitStruct = {0};
 80002cc:	463b      	mov	r3, r7
 80002ce:	2200      	movs	r2, #0
 80002d0:	601a      	str	r2, [r3, #0]
 80002d2:	605a      	str	r2, [r3, #4]
 80002d4:	609a      	str	r2, [r3, #8]
 80002d6:	60da      	str	r2, [r3, #12]
 80002d8:	611a      	str	r2, [r3, #16]

  /** Configure the main internal regulator output voltage
  */
  if (HAL_PWREx_ControlVoltageScaling(PWR_REGULATOR_VOLTAGE_SCALE1_BOOST) != HAL_OK)
 80002da:	2000      	movs	r0, #0
 80002dc:	f001 fde6 	bl	8001eac <HAL_PWREx_ControlVoltageScaling>
 80002e0:	4603      	mov	r3, r0
 80002e2:	2b00      	cmp	r3, #0
 80002e4:	d001      	beq.n	80002ea <SystemClock_Config+0x32>
  {
    Error_Handler();
 80002e6:	f000 f8f5 	bl	80004d4 <Error_Handler>
  }

  /** Initializes the RCC Oscillators according to the specified parameters
  * in the RCC_OscInitTypeDef structure.
  */
  RCC_OscInitStruct.OscillatorType = RCC_OSCILLATORTYPE_MSI;
 80002ea:	2310      	movs	r3, #16
 80002ec:	617b      	str	r3, [r7, #20]
  RCC_OscInitStruct.MSIState = RCC_MSI_ON;
 80002ee:	2301      	movs	r3, #1
 80002f0:	62fb      	str	r3, [r7, #44]	@ 0x2c
  RCC_OscInitStruct.MSICalibrationValue = 0;
 80002f2:	2300      	movs	r3, #0
 80002f4:	633b      	str	r3, [r7, #48]	@ 0x30
  RCC_OscInitStruct.MSIClockRange = RCC_MSIRANGE_6;
 80002f6:	2360      	movs	r3, #96	@ 0x60
 80002f8:	637b      	str	r3, [r7, #52]	@ 0x34
  RCC_OscInitStruct.PLL.PLLState = RCC_PLL_ON;
 80002fa:	2302      	movs	r3, #2
 80002fc:	63fb      	str	r3, [r7, #60]	@ 0x3c
  RCC_OscInitStruct.PLL.PLLSource = RCC_PLLSOURCE_MSI;
 80002fe:	2301      	movs	r3, #1
 8000300:	643b      	str	r3, [r7, #64]	@ 0x40
  RCC_OscInitStruct.PLL.PLLM = 1;
 8000302:	2301      	movs	r3, #1
 8000304:	647b      	str	r3, [r7, #68]	@ 0x44
  RCC_OscInitStruct.PLL.PLLN = 60;
 8000306:	233c      	movs	r3, #60	@ 0x3c
 8000308:	64bb      	str	r3, [r7, #72]	@ 0x48
  RCC_OscInitStruct.PLL.PLLP = RCC_PLLP_DIV2;
 800030a:	2302      	movs	r3, #2
 800030c:	64fb      	str	r3, [r7, #76]	@ 0x4c
  RCC_OscInitStruct.PLL.PLLQ = RCC_PLLQ_DIV2;
 800030e:	2302      	movs	r3, #2
 8000310:	653b      	str	r3, [r7, #80]	@ 0x50
  RCC_OscInitStruct.PLL.PLLR = RCC_PLLR_DIV2;
 8000312:	2302      	movs	r3, #2
 8000314:	657b      	str	r3, [r7, #84]	@ 0x54
  if (HAL_RCC_OscConfig(&RCC_OscInitStruct) != HAL_OK)
 8000316:	f107 0314 	add.w	r3, r7, #20
 800031a:	4618      	mov	r0, r3
 800031c:	f001 fe6a 	bl	8001ff4 <HAL_RCC_OscConfig>
 8000320:	4603      	mov	r3, r0
 8000322:	2b00      	cmp	r3, #0
 8000324:	d001      	beq.n	800032a <SystemClock_Config+0x72>
  {
    Error_Handler();
 8000326:	f000 f8d5 	bl	80004d4 <Error_Handler>
  }

  /** Initializes the CPU, AHB and APB buses clocks
  */
  RCC_ClkInitStruct.ClockType = RCC_CLOCKTYPE_HCLK|RCC_CLOCKTYPE_SYSCLK
 800032a:	230f      	movs	r3, #15
 800032c:	603b      	str	r3, [r7, #0]
                              |RCC_CLOCKTYPE_PCLK1|RCC_CLOCKTYPE_PCLK2;
  RCC_ClkInitStruct.SYSCLKSource = RCC_SYSCLKSOURCE_PLLCLK;
 800032e:	2303      	movs	r3, #3
 8000330:	607b      	str	r3, [r7, #4]
  RCC_ClkInitStruct.AHBCLKDivider = RCC_SYSCLK_DIV1;
 8000332:	2300      	movs	r3, #0
 8000334:	60bb      	str	r3, [r7, #8]
  RCC_ClkInitStruct.APB1CLKDivider = RCC_HCLK_DIV1;
 8000336:	2300      	movs	r3, #0
 8000338:	60fb      	str	r3, [r7, #12]
  RCC_ClkInitStruct.APB2CLKDivider = RCC_HCLK_DIV1;
 800033a:	2300      	movs	r3, #0
 800033c:	613b      	str	r3, [r7, #16]

  if (HAL_RCC_ClockConfig(&RCC_ClkInitStruct, FLASH_LATENCY_5) != HAL_OK)
 800033e:	463b      	mov	r3, r7
 8000340:	2105      	movs	r1, #5
 8000342:	4618      	mov	r0, r3
 8000344:	f002 fa70 	bl	8002828 <HAL_RCC_ClockConfig>
 8000348:	4603      	mov	r3, r0
 800034a:	2b00      	cmp	r3, #0
 800034c:	d001      	beq.n	8000352 <SystemClock_Config+0x9a>
  {
    Error_Handler();
 800034e:	f000 f8c1 	bl	80004d4 <Error_Handler>
  }
}
 8000352:	bf00      	nop
 8000354:	3758      	adds	r7, #88	@ 0x58
 8000356:	46bd      	mov	sp, r7
 8000358:	bd80      	pop	{r7, pc}
	...

0800035c <MX_ADC1_Init>:
  * @brief ADC1 Initialization Function
  * @param None
  * @retval None
  */
static void MX_ADC1_Init(void)
{
 800035c:	b580      	push	{r7, lr}
 800035e:	b086      	sub	sp, #24
 8000360:	af00      	add	r7, sp, #0

  /* USER CODE BEGIN ADC1_Init 0 */

  /* USER CODE END ADC1_Init 0 */

  ADC_ChannelConfTypeDef sConfig = {0};
 8000362:	463b      	mov	r3, r7
 8000364:	2200      	movs	r2, #0
 8000366:	601a      	str	r2, [r3, #0]
 8000368:	605a      	str	r2, [r3, #4]
 800036a:	609a      	str	r2, [r3, #8]
 800036c:	60da      	str	r2, [r3, #12]
 800036e:	611a      	str	r2, [r3, #16]
 8000370:	615a      	str	r2, [r3, #20]

  /* USER CODE END ADC1_Init 1 */

  /** Common config
  */
  hadc1.Instance = ADC1;
 8000372:	4b29      	ldr	r3, [pc, #164]	@ (8000418 <MX_ADC1_Init+0xbc>)
 8000374:	4a29      	ldr	r2, [pc, #164]	@ (800041c <MX_ADC1_Init+0xc0>)
 8000376:	601a      	str	r2, [r3, #0]
  hadc1.Init.ClockPrescaler = ADC_CLOCK_ASYNC_DIV1;
 8000378:	4b27      	ldr	r3, [pc, #156]	@ (8000418 <MX_ADC1_Init+0xbc>)
 800037a:	2200      	movs	r2, #0
 800037c:	605a      	str	r2, [r3, #4]
  hadc1.Init.Resolution = ADC_RESOLUTION_12B;
 800037e:	4b26      	ldr	r3, [pc, #152]	@ (8000418 <MX_ADC1_Init+0xbc>)
 8000380:	2200      	movs	r2, #0
 8000382:	609a      	str	r2, [r3, #8]
  hadc1.Init.DataAlign = ADC_DATAALIGN_RIGHT;
 8000384:	4b24      	ldr	r3, [pc, #144]	@ (8000418 <MX_ADC1_Init+0xbc>)
 8000386:	2200      	movs	r2, #0
 8000388:	60da      	str	r2, [r3, #12]
  hadc1.Init.ScanConvMode = ADC_SCAN_DISABLE;
 800038a:	4b23      	ldr	r3, [pc, #140]	@ (8000418 <MX_ADC1_Init+0xbc>)
 800038c:	2200      	movs	r2, #0
 800038e:	611a      	str	r2, [r3, #16]
  hadc1.Init.EOCSelection = ADC_EOC_SINGLE_CONV;
 8000390:	4b21      	ldr	r3, [pc, #132]	@ (8000418 <MX_ADC1_Init+0xbc>)
 8000392:	2204      	movs	r2, #4
 8000394:	615a      	str	r2, [r3, #20]
  hadc1.Init.LowPowerAutoWait = DISABLE;
 8000396:	4b20      	ldr	r3, [pc, #128]	@ (8000418 <MX_ADC1_Init+0xbc>)
 8000398:	2200      	movs	r2, #0
 800039a:	761a      	strb	r2, [r3, #24]
  hadc1.Init.ContinuousConvMode = DISABLE;
 800039c:	4b1e      	ldr	r3, [pc, #120]	@ (8000418 <MX_ADC1_Init+0xbc>)
 800039e:	2200      	movs	r2, #0
 80003a0:	765a      	strb	r2, [r3, #25]
  hadc1.Init.NbrOfConversion = 1;
 80003a2:	4b1d      	ldr	r3, [pc, #116]	@ (8000418 <MX_ADC1_Init+0xbc>)
 80003a4:	2201      	movs	r2, #1
 80003a6:	61da      	str	r2, [r3, #28]
  hadc1.Init.DiscontinuousConvMode = DISABLE;
 80003a8:	4b1b      	ldr	r3, [pc, #108]	@ (8000418 <MX_ADC1_Init+0xbc>)
 80003aa:	2200      	movs	r2, #0
 80003ac:	f883 2020 	strb.w	r2, [r3, #32]
  hadc1.Init.ExternalTrigConv = ADC_SOFTWARE_START;
 80003b0:	4b19      	ldr	r3, [pc, #100]	@ (8000418 <MX_ADC1_Init+0xbc>)
 80003b2:	2200      	movs	r2, #0
 80003b4:	629a      	str	r2, [r3, #40]	@ 0x28
  hadc1.Init.ExternalTrigConvEdge = ADC_EXTERNALTRIGCONVEDGE_NONE;
 80003b6:	4b18      	ldr	r3, [pc, #96]	@ (8000418 <MX_ADC1_Init+0xbc>)
 80003b8:	2200      	movs	r2, #0
 80003ba:	62da      	str	r2, [r3, #44]	@ 0x2c
  hadc1.Init.DMAContinuousRequests = DISABLE;
 80003bc:	4b16      	ldr	r3, [pc, #88]	@ (8000418 <MX_ADC1_Init+0xbc>)
 80003be:	2200      	movs	r2, #0
 80003c0:	f883 2030 	strb.w	r2, [r3, #48]	@ 0x30
  hadc1.Init.Overrun = ADC_OVR_DATA_PRESERVED;
 80003c4:	4b14      	ldr	r3, [pc, #80]	@ (8000418 <MX_ADC1_Init+0xbc>)
 80003c6:	2200      	movs	r2, #0
 80003c8:	635a      	str	r2, [r3, #52]	@ 0x34
  hadc1.Init.OversamplingMode = DISABLE;
 80003ca:	4b13      	ldr	r3, [pc, #76]	@ (8000418 <MX_ADC1_Init+0xbc>)
 80003cc:	2200      	movs	r2, #0
 80003ce:	f883 2038 	strb.w	r2, [r3, #56]	@ 0x38
  if (HAL_ADC_Init(&hadc1) != HAL_OK)
 80003d2:	4811      	ldr	r0, [pc, #68]	@ (8000418 <MX_ADC1_Init+0xbc>)
 80003d4:	f000 fbae 	bl	8000b34 <HAL_ADC_Init>
 80003d8:	4603      	mov	r3, r0
 80003da:	2b00      	cmp	r3, #0
 80003dc:	d001      	beq.n	80003e2 <MX_ADC1_Init+0x86>
  {
    Error_Handler();
 80003de:	f000 f879 	bl	80004d4 <Error_Handler>
  }

  /** Configure Regular Channel
  */
  sConfig.Channel = ADC_CHANNEL_VREFINT;
 80003e2:	4b0f      	ldr	r3, [pc, #60]	@ (8000420 <MX_ADC1_Init+0xc4>)
 80003e4:	603b      	str	r3, [r7, #0]
  sConfig.Rank = ADC_REGULAR_RANK_1;
 80003e6:	2306      	movs	r3, #6
 80003e8:	607b      	str	r3, [r7, #4]
  sConfig.SamplingTime = ADC_SAMPLETIME_2CYCLES_5;
 80003ea:	2300      	movs	r3, #0
 80003ec:	60bb      	str	r3, [r7, #8]
  sConfig.SingleDiff = ADC_SINGLE_ENDED;
 80003ee:	237f      	movs	r3, #127	@ 0x7f
 80003f0:	60fb      	str	r3, [r7, #12]
  sConfig.OffsetNumber = ADC_OFFSET_NONE;
 80003f2:	2304      	movs	r3, #4
 80003f4:	613b      	str	r3, [r7, #16]
  sConfig.Offset = 0;
 80003f6:	2300      	movs	r3, #0
 80003f8:	617b      	str	r3, [r7, #20]
  if (HAL_ADC_ConfigChannel(&hadc1, &sConfig) != HAL_OK)
 80003fa:	463b      	mov	r3, r7
 80003fc:	4619      	mov	r1, r3
 80003fe:	4806      	ldr	r0, [pc, #24]	@ (8000418 <MX_ADC1_Init+0xbc>)
 8000400:	f000 fdde 	bl	8000fc0 <HAL_ADC_ConfigChannel>
 8000404:	4603      	mov	r3, r0
 8000406:	2b00      	cmp	r3, #0
 8000408:	d001      	beq.n	800040e <MX_ADC1_Init+0xb2>
  {
    Error_Handler();
 800040a:	f000 f863 	bl	80004d4 <Error_Handler>
  }
  /* USER CODE BEGIN ADC1_Init 2 */

  /* USER CODE END ADC1_Init 2 */

}
 800040e:	bf00      	nop
 8000410:	3718      	adds	r7, #24
 8000412:	46bd      	mov	sp, r7
 8000414:	bd80      	pop	{r7, pc}
 8000416:	bf00      	nop
 8000418:	20000028 	.word	0x20000028
 800041c:	50040000 	.word	0x50040000
 8000420:	80000001 	.word	0x80000001

08000424 <MX_GPIO_Init>:
  * @brief GPIO Initialization Function
  * @param None
  * @retval None
  */
static void MX_GPIO_Init(void)
{
 8000424:	b580      	push	{r7, lr}
 8000426:	b088      	sub	sp, #32
 8000428:	af00      	add	r7, sp, #0
  GPIO_InitTypeDef GPIO_InitStruct = {0};
 800042a:	f107 030c 	add.w	r3, r7, #12
 800042e:	2200      	movs	r2, #0
 8000430:	601a      	str	r2, [r3, #0]
 8000432:	605a      	str	r2, [r3, #4]
 8000434:	609a      	str	r2, [r3, #8]
 8000436:	60da      	str	r2, [r3, #12]
 8000438:	611a      	str	r2, [r3, #16]
/* USER CODE BEGIN MX_GPIO_Init_1 */
/* USER CODE END MX_GPIO_Init_1 */

  /* GPIO Ports Clock Enable */
  __HAL_RCC_GPIOC_CLK_ENABLE();
 800043a:	4b23      	ldr	r3, [pc, #140]	@ (80004c8 <MX_GPIO_Init+0xa4>)
 800043c:	6cdb      	ldr	r3, [r3, #76]	@ 0x4c
 800043e:	4a22      	ldr	r2, [pc, #136]	@ (80004c8 <MX_GPIO_Init+0xa4>)
 8000440:	f043 0304 	orr.w	r3, r3, #4
 8000444:	64d3      	str	r3, [r2, #76]	@ 0x4c
 8000446:	4b20      	ldr	r3, [pc, #128]	@ (80004c8 <MX_GPIO_Init+0xa4>)
 8000448:	6cdb      	ldr	r3, [r3, #76]	@ 0x4c
 800044a:	f003 0304 	and.w	r3, r3, #4
 800044e:	60bb      	str	r3, [r7, #8]
 8000450:	68bb      	ldr	r3, [r7, #8]
  __HAL_RCC_GPIOB_CLK_ENABLE();
 8000452:	4b1d      	ldr	r3, [pc, #116]	@ (80004c8 <MX_GPIO_Init+0xa4>)
 8000454:	6cdb      	ldr	r3, [r3, #76]	@ 0x4c
 8000456:	4a1c      	ldr	r2, [pc, #112]	@ (80004c8 <MX_GPIO_Init+0xa4>)
 8000458:	f043 0302 	orr.w	r3, r3, #2
 800045c:	64d3      	str	r3, [r2, #76]	@ 0x4c
 800045e:	4b1a      	ldr	r3, [pc, #104]	@ (80004c8 <MX_GPIO_Init+0xa4>)
 8000460:	6cdb      	ldr	r3, [r3, #76]	@ 0x4c
 8000462:	f003 0302 	and.w	r3, r3, #2
 8000466:	607b      	str	r3, [r7, #4]
 8000468:	687b      	ldr	r3, [r7, #4]

  /*Configure GPIO pin Output Level */
  HAL_GPIO_WritePin(LED_GPIO_Port, LED_Pin, GPIO_PIN_RESET);
 800046a:	2200      	movs	r2, #0
 800046c:	f44f 4180 	mov.w	r1, #16384	@ 0x4000
 8000470:	4816      	ldr	r0, [pc, #88]	@ (80004cc <MX_GPIO_Init+0xa8>)
 8000472:	f001 fccb 	bl	8001e0c <HAL_GPIO_WritePin>

  /*Configure GPIO pin : Button_Pin */
  GPIO_InitStruct.Pin = Button_Pin;
 8000476:	f44f 5300 	mov.w	r3, #8192	@ 0x2000
 800047a:	60fb      	str	r3, [r7, #12]
  GPIO_InitStruct.Mode = GPIO_MODE_IT_FALLING;
 800047c:	f44f 1304 	mov.w	r3, #2162688	@ 0x210000
 8000480:	613b      	str	r3, [r7, #16]
  GPIO_InitStruct.Pull = GPIO_NOPULL;
 8000482:	2300      	movs	r3, #0
 8000484:	617b      	str	r3, [r7, #20]
  HAL_GPIO_Init(Button_GPIO_Port, &GPIO_InitStruct);
 8000486:	f107 030c 	add.w	r3, r7, #12
 800048a:	4619      	mov	r1, r3
 800048c:	4810      	ldr	r0, [pc, #64]	@ (80004d0 <MX_GPIO_Init+0xac>)
 800048e:	f001 fb2b 	bl	8001ae8 <HAL_GPIO_Init>

  /*Configure GPIO pin : LED_Pin */
  GPIO_InitStruct.Pin = LED_Pin;
 8000492:	f44f 4380 	mov.w	r3, #16384	@ 0x4000
 8000496:	60fb      	str	r3, [r7, #12]
  GPIO_InitStruct.Mode = GPIO_MODE_OUTPUT_PP;
 8000498:	2301      	movs	r3, #1
 800049a:	613b      	str	r3, [r7, #16]
  GPIO_InitStruct.Pull = GPIO_NOPULL;
 800049c:	2300      	movs	r3, #0
 800049e:	617b      	str	r3, [r7, #20]
  GPIO_InitStruct.Speed = GPIO_SPEED_FREQ_LOW;
 80004a0:	2300      	movs	r3, #0
 80004a2:	61bb      	str	r3, [r7, #24]
  HAL_GPIO_Init(LED_GPIO_Port, &GPIO_InitStruct);
 80004a4:	f107 030c 	add.w	r3, r7, #12
 80004a8:	4619      	mov	r1, r3
 80004aa:	4808      	ldr	r0, [pc, #32]	@ (80004cc <MX_GPIO_Init+0xa8>)
 80004ac:	f001 fb1c 	bl	8001ae8 <HAL_GPIO_Init>

  /* EXTI interrupt init*/
  HAL_NVIC_SetPriority(EXTI15_10_IRQn, 0, 0);
 80004b0:	2200      	movs	r2, #0
 80004b2:	2100      	movs	r1, #0
 80004b4:	2028      	movs	r0, #40	@ 0x28
 80004b6:	f001 fae0 	bl	8001a7a <HAL_NVIC_SetPriority>
  HAL_NVIC_EnableIRQ(EXTI15_10_IRQn);
 80004ba:	2028      	movs	r0, #40	@ 0x28
 80004bc:	f001 faf9 	bl	8001ab2 <HAL_NVIC_EnableIRQ>

/* USER CODE BEGIN MX_GPIO_Init_2 */
/* USER CODE END MX_GPIO_Init_2 */
}
 80004c0:	bf00      	nop
 80004c2:	3720      	adds	r7, #32
 80004c4:	46bd      	mov	sp, r7
 80004c6:	bd80      	pop	{r7, pc}
 80004c8:	40021000 	.word	0x40021000
 80004cc:	48000400 	.word	0x48000400
 80004d0:	48000800 	.word	0x48000800

080004d4 <Error_Handler>:
/**
  * @brief  This function is executed in case of error occurrence.
  * @retval None
  */
void Error_Handler(void)
{
 80004d4:	b480      	push	{r7}
 80004d6:	af00      	add	r7, sp, #0
  \details Disables IRQ interrupts by setting the I-bit in the CPSR.
           Can only be executed in Privileged modes.
 */
__STATIC_FORCEINLINE void __disable_irq(void)
{
  __ASM volatile ("cpsid i" : : : "memory");
 80004d8:	b672      	cpsid	i
}
 80004da:	bf00      	nop
  /* USER CODE BEGIN Error_Handler_Debug */
  /* User can add his own implementation to report the HAL error return state */
  __disable_irq();
  while (1)
 80004dc:	bf00      	nop
 80004de:	e7fd      	b.n	80004dc <Error_Handler+0x8>

080004e0 <HAL_MspInit>:
/* USER CODE END 0 */
/**
  * Initializes the Global MSP.
  */
void HAL_MspInit(void)
{
 80004e0:	b480      	push	{r7}
 80004e2:	b083      	sub	sp, #12
 80004e4:	af00      	add	r7, sp, #0

  /* USER CODE BEGIN MspInit 0 */

  /* USER CODE END MspInit 0 */

  __HAL_RCC_SYSCFG_CLK_ENABLE();
 80004e6:	4b0f      	ldr	r3, [pc, #60]	@ (8000524 <HAL_MspInit+0x44>)
 80004e8:	6e1b      	ldr	r3, [r3, #96]	@ 0x60
 80004ea:	4a0e      	ldr	r2, [pc, #56]	@ (8000524 <HAL_MspInit+0x44>)
 80004ec:	f043 0301 	orr.w	r3, r3, #1
 80004f0:	6613      	str	r3, [r2, #96]	@ 0x60
 80004f2:	4b0c      	ldr	r3, [pc, #48]	@ (8000524 <HAL_MspInit+0x44>)
 80004f4:	6e1b      	ldr	r3, [r3, #96]	@ 0x60
 80004f6:	f003 0301 	and.w	r3, r3, #1
 80004fa:	607b      	str	r3, [r7, #4]
 80004fc:	687b      	ldr	r3, [r7, #4]
  __HAL_RCC_PWR_CLK_ENABLE();
 80004fe:	4b09      	ldr	r3, [pc, #36]	@ (8000524 <HAL_MspInit+0x44>)
 8000500:	6d9b      	ldr	r3, [r3, #88]	@ 0x58
 8000502:	4a08      	ldr	r2, [pc, #32]	@ (8000524 <HAL_MspInit+0x44>)
 8000504:	f043 5380 	orr.w	r3, r3, #268435456	@ 0x10000000
 8000508:	6593      	str	r3, [r2, #88]	@ 0x58
 800050a:	4b06      	ldr	r3, [pc, #24]	@ (8000524 <HAL_MspInit+0x44>)
 800050c:	6d9b      	ldr	r3, [r3, #88]	@ 0x58
 800050e:	f003 5380 	and.w	r3, r3, #268435456	@ 0x10000000
 8000512:	603b      	str	r3, [r7, #0]
 8000514:	683b      	ldr	r3, [r7, #0]
  /* System interrupt init*/

  /* USER CODE BEGIN MspInit 1 */

  /* USER CODE END MspInit 1 */
}
 8000516:	bf00      	nop
 8000518:	370c      	adds	r7, #12
 800051a:	46bd      	mov	sp, r7
 800051c:	f85d 7b04 	ldr.w	r7, [sp], #4
 8000520:	4770      	bx	lr
 8000522:	bf00      	nop
 8000524:	40021000 	.word	0x40021000

08000528 <HAL_ADC_MspInit>:
* This function configures the hardware resources used in this example
* @param hadc: ADC handle pointer
* @retval None
*/
void HAL_ADC_MspInit(ADC_HandleTypeDef* hadc)
{
 8000528:	b580      	push	{r7, lr}
 800052a:	b0a8      	sub	sp, #160	@ 0xa0
 800052c:	af00      	add	r7, sp, #0
 800052e:	6078      	str	r0, [r7, #4]
  RCC_PeriphCLKInitTypeDef PeriphClkInit = {0};
 8000530:	f107 030c 	add.w	r3, r7, #12
 8000534:	2294      	movs	r2, #148	@ 0x94
 8000536:	2100      	movs	r1, #0
 8000538:	4618      	mov	r0, r3
 800053a:	f003 f913 	bl	8003764 <memset>
  if(hadc->Instance==ADC1)
 800053e:	687b      	ldr	r3, [r7, #4]
 8000540:	681b      	ldr	r3, [r3, #0]
 8000542:	4a19      	ldr	r2, [pc, #100]	@ (80005a8 <HAL_ADC_MspInit+0x80>)
 8000544:	4293      	cmp	r3, r2
 8000546:	d12b      	bne.n	80005a0 <HAL_ADC_MspInit+0x78>

  /* USER CODE END ADC1_MspInit 0 */

  /** Initializes the peripherals clock
  */
    PeriphClkInit.PeriphClockSelection = RCC_PERIPHCLK_ADC;
 8000548:	f44f 4380 	mov.w	r3, #16384	@ 0x4000
 800054c:	60fb      	str	r3, [r7, #12]
    PeriphClkInit.AdcClockSelection = RCC_ADCCLKSOURCE_PLLSAI1;
 800054e:	f04f 5380 	mov.w	r3, #268435456	@ 0x10000000
 8000552:	f8c7 308c 	str.w	r3, [r7, #140]	@ 0x8c
    PeriphClkInit.PLLSAI1.PLLSAI1Source = RCC_PLLSOURCE_MSI;
 8000556:	2301      	movs	r3, #1
 8000558:	613b      	str	r3, [r7, #16]
    PeriphClkInit.PLLSAI1.PLLSAI1M = 1;
 800055a:	2301      	movs	r3, #1
 800055c:	617b      	str	r3, [r7, #20]
    PeriphClkInit.PLLSAI1.PLLSAI1N = 24;
 800055e:	2318      	movs	r3, #24
 8000560:	61bb      	str	r3, [r7, #24]
    PeriphClkInit.PLLSAI1.PLLSAI1P = RCC_PLLP_DIV2;
 8000562:	2302      	movs	r3, #2
 8000564:	61fb      	str	r3, [r7, #28]
    PeriphClkInit.PLLSAI1.PLLSAI1Q = RCC_PLLQ_DIV2;
 8000566:	2302      	movs	r3, #2
 8000568:	623b      	str	r3, [r7, #32]
    PeriphClkInit.PLLSAI1.PLLSAI1R = RCC_PLLR_DIV2;
 800056a:	2302      	movs	r3, #2
 800056c:	627b      	str	r3, [r7, #36]	@ 0x24
    PeriphClkInit.PLLSAI1.PLLSAI1ClockOut = RCC_PLLSAI1_ADC1CLK;
 800056e:	f04f 7380 	mov.w	r3, #16777216	@ 0x1000000
 8000572:	62bb      	str	r3, [r7, #40]	@ 0x28
    if (HAL_RCCEx_PeriphCLKConfig(&PeriphClkInit) != HAL_OK)
 8000574:	f107 030c 	add.w	r3, r7, #12
 8000578:	4618      	mov	r0, r3
 800057a:	f002 fbdb 	bl	8002d34 <HAL_RCCEx_PeriphCLKConfig>
 800057e:	4603      	mov	r3, r0
 8000580:	2b00      	cmp	r3, #0
 8000582:	d001      	beq.n	8000588 <HAL_ADC_MspInit+0x60>
    {
      Error_Handler();
 8000584:	f7ff ffa6 	bl	80004d4 <Error_Handler>
    }

    /* Peripheral clock enable */
    __HAL_RCC_ADC_CLK_ENABLE();
 8000588:	4b08      	ldr	r3, [pc, #32]	@ (80005ac <HAL_ADC_MspInit+0x84>)
 800058a:	6cdb      	ldr	r3, [r3, #76]	@ 0x4c
 800058c:	4a07      	ldr	r2, [pc, #28]	@ (80005ac <HAL_ADC_MspInit+0x84>)
 800058e:	f443 5300 	orr.w	r3, r3, #8192	@ 0x2000
 8000592:	64d3      	str	r3, [r2, #76]	@ 0x4c
 8000594:	4b05      	ldr	r3, [pc, #20]	@ (80005ac <HAL_ADC_MspInit+0x84>)
 8000596:	6cdb      	ldr	r3, [r3, #76]	@ 0x4c
 8000598:	f403 5300 	and.w	r3, r3, #8192	@ 0x2000
 800059c:	60bb      	str	r3, [r7, #8]
 800059e:	68bb      	ldr	r3, [r7, #8]

  /* USER CODE END ADC1_MspInit 1 */

  }

}
 80005a0:	bf00      	nop
 80005a2:	37a0      	adds	r7, #160	@ 0xa0
 80005a4:	46bd      	mov	sp, r7
 80005a6:	bd80      	pop	{r7, pc}
 80005a8:	50040000 	.word	0x50040000
 80005ac:	40021000 	.word	0x40021000

080005b0 <NMI_Handler>:
/******************************************************************************/
/**
  * @brief This function handles Non maskable interrupt.
  */
void NMI_Handler(void)
{
 80005b0:	b480      	push	{r7}
 80005b2:	af00      	add	r7, sp, #0
  /* USER CODE BEGIN NonMaskableInt_IRQn 0 */

  /* USER CODE END NonMaskableInt_IRQn 0 */
  /* USER CODE BEGIN NonMaskableInt_IRQn 1 */
   while (1)
 80005b4:	bf00      	nop
 80005b6:	e7fd      	b.n	80005b4 <NMI_Handler+0x4>

080005b8 <HardFault_Handler>:

/**
  * @brief This function handles Hard fault interrupt.
  */
void HardFault_Handler(void)
{
 80005b8:	b480      	push	{r7}
 80005ba:	af00      	add	r7, sp, #0
  /* USER CODE BEGIN HardFault_IRQn 0 */

  /* USER CODE END HardFault_IRQn 0 */
  while (1)
 80005bc:	bf00      	nop
 80005be:	e7fd      	b.n	80005bc <HardFault_Handler+0x4>

080005c0 <MemManage_Handler>:

/**
  * @brief This function handles Memory management fault.
  */
void MemManage_Handler(void)
{
 80005c0:	b480      	push	{r7}
 80005c2:	af00      	add	r7, sp, #0
  /* USER CODE BEGIN MemoryManagement_IRQn 0 */

  /* USER CODE END MemoryManagement_IRQn 0 */
  while (1)
 80005c4:	bf00      	nop
 80005c6:	e7fd      	b.n	80005c4 <MemManage_Handler+0x4>

080005c8 <BusFault_Handler>:

/**
  * @brief This function handles Prefetch fault, memory access fault.
  */
void BusFault_Handler(void)
{
 80005c8:	b480      	push	{r7}
 80005ca:	af00      	add	r7, sp, #0
  /* USER CODE BEGIN BusFault_IRQn 0 */

  /* USER CODE END BusFault_IRQn 0 */
  while (1)
 80005cc:	bf00      	nop
 80005ce:	e7fd      	b.n	80005cc <BusFault_Handler+0x4>

080005d0 <UsageFault_Handler>:

/**
  * @brief This function handles Undefined instruction or illegal state.
  */
void UsageFault_Handler(void)
{
 80005d0:	b480      	push	{r7}
 80005d2:	af00      	add	r7, sp, #0
  /* USER CODE BEGIN UsageFault_IRQn 0 */

  /* USER CODE END UsageFault_IRQn 0 */
  while (1)
 80005d4:	bf00      	nop
 80005d6:	e7fd      	b.n	80005d4 <UsageFault_Handler+0x4>

080005d8 <SVC_Handler>:

/**
  * @brief This function handles System service call via SWI instruction.
  */
void SVC_Handler(void)
{
 80005d8:	b480      	push	{r7}
 80005da:	af00      	add	r7, sp, #0

  /* USER CODE END SVCall_IRQn 0 */
  /* USER CODE BEGIN SVCall_IRQn 1 */

  /* USER CODE END SVCall_IRQn 1 */
}
 80005dc:	bf00      	nop
 80005de:	46bd      	mov	sp, r7
 80005e0:	f85d 7b04 	ldr.w	r7, [sp], #4
 80005e4:	4770      	bx	lr

080005e6 <DebugMon_Handler>:

/**
  * @brief This function handles Debug monitor.
  */
void DebugMon_Handler(void)
{
 80005e6:	b480      	push	{r7}
 80005e8:	af00      	add	r7, sp, #0

  /* USER CODE END DebugMonitor_IRQn 0 */
  /* USER CODE BEGIN DebugMonitor_IRQn 1 */

  /* USER CODE END DebugMonitor_IRQn 1 */
}
 80005ea:	bf00      	nop
 80005ec:	46bd      	mov	sp, r7
 80005ee:	f85d 7b04 	ldr.w	r7, [sp], #4
 80005f2:	4770      	bx	lr

080005f4 <PendSV_Handler>:

/**
  * @brief This function handles Pendable request for system service.
  */
void PendSV_Handler(void)
{
 80005f4:	b480      	push	{r7}
 80005f6:	af00      	add	r7, sp, #0

  /* USER CODE END PendSV_IRQn 0 */
  /* USER CODE BEGIN PendSV_IRQn 1 */

  /* USER CODE END PendSV_IRQn 1 */
}
 80005f8:	bf00      	nop
 80005fa:	46bd      	mov	sp, r7
 80005fc:	f85d 7b04 	ldr.w	r7, [sp], #4
 8000600:	4770      	bx	lr

08000602 <SysTick_Handler>:

/**
  * @brief This function handles System tick timer.
  */
void SysTick_Handler(void)
{
 8000602:	b580      	push	{r7, lr}
 8000604:	af00      	add	r7, sp, #0
  /* USER CODE BEGIN SysTick_IRQn 0 */

  /* USER CODE END SysTick_IRQn 0 */
  HAL_IncTick();
 8000606:	f000 f89b 	bl	8000740 <HAL_IncTick>
  /* USER CODE BEGIN SysTick_IRQn 1 */

  /* USER CODE END SysTick_IRQn 1 */
}
 800060a:	bf00      	nop
 800060c:	bd80      	pop	{r7, pc}

0800060e <EXTI15_10_IRQHandler>:

/**
  * @brief This function handles EXTI line[15:10] interrupts.
  */
void EXTI15_10_IRQHandler(void)
{
 800060e:	b580      	push	{r7, lr}
 8000610:	af00      	add	r7, sp, #0
  /* USER CODE BEGIN EXTI15_10_IRQn 0 */

  /* USER CODE END EXTI15_10_IRQn 0 */
  HAL_GPIO_EXTI_IRQHandler(Button_Pin);
 8000612:	f44f 5000 	mov.w	r0, #8192	@ 0x2000
 8000616:	f001 fc11 	bl	8001e3c <HAL_GPIO_EXTI_IRQHandler>
  /* USER CODE BEGIN EXTI15_10_IRQn 1 */

  /* USER CODE END EXTI15_10_IRQn 1 */
}
 800061a:	bf00      	nop
 800061c:	bd80      	pop	{r7, pc}
	...

08000620 <SystemInit>:
  * @brief  Setup the microcontroller system.
  * @retval None
  */

void SystemInit(void)
{
 8000620:	b480      	push	{r7}
 8000622:	af00      	add	r7, sp, #0
  SCB->VTOR = VECT_TAB_BASE_ADDRESS | VECT_TAB_OFFSET;
#endif

  /* FPU settings ------------------------------------------------------------*/
#if (__FPU_PRESENT == 1) && (__FPU_USED == 1)
  SCB->CPACR |= ((3UL << 20U)|(3UL << 22U));  /* set CP10 and CP11 Full Access */
 8000624:	4b06      	ldr	r3, [pc, #24]	@ (8000640 <SystemInit+0x20>)
 8000626:	f8d3 3088 	ldr.w	r3, [r3, #136]	@ 0x88
 800062a:	4a05      	ldr	r2, [pc, #20]	@ (8000640 <SystemInit+0x20>)
 800062c:	f443 0370 	orr.w	r3, r3, #15728640	@ 0xf00000
 8000630:	f8c2 3088 	str.w	r3, [r2, #136]	@ 0x88
#endif
}
 8000634:	bf00      	nop
 8000636:	46bd      	mov	sp, r7
 8000638:	f85d 7b04 	ldr.w	r7, [sp], #4
 800063c:	4770      	bx	lr
 800063e:	bf00      	nop
 8000640:	e000ed00 	.word	0xe000ed00

08000644 <Reset_Handler>:

    .section	.text.Reset_Handler
	.weak	Reset_Handler
	.type	Reset_Handler, %function
Reset_Handler:
  ldr   sp, =_estack    /* Set stack pointer */
 8000644:	f8df d034 	ldr.w	sp, [pc, #52]	@ 800067c <LoopForever+0x2>

/* Call the clock system initialization function.*/
    bl  SystemInit
 8000648:	f7ff ffea 	bl	8000620 <SystemInit>

/* Copy the data segment initializers from flash to SRAM */
  ldr r0, =_sdata
 800064c:	480c      	ldr	r0, [pc, #48]	@ (8000680 <LoopForever+0x6>)
  ldr r1, =_edata
 800064e:	490d      	ldr	r1, [pc, #52]	@ (8000684 <LoopForever+0xa>)
  ldr r2, =_sidata
 8000650:	4a0d      	ldr	r2, [pc, #52]	@ (8000688 <LoopForever+0xe>)
  movs r3, #0
 8000652:	2300      	movs	r3, #0
  b LoopCopyDataInit
 8000654:	e002      	b.n	800065c <LoopCopyDataInit>

08000656 <CopyDataInit>:

CopyDataInit:
  ldr r4, [r2, r3]
 8000656:	58d4      	ldr	r4, [r2, r3]
  str r4, [r0, r3]
 8000658:	50c4      	str	r4, [r0, r3]
  adds r3, r3, #4
 800065a:	3304      	adds	r3, #4

0800065c <LoopCopyDataInit>:

LoopCopyDataInit:
  adds r4, r0, r3
 800065c:	18c4      	adds	r4, r0, r3
  cmp r4, r1
 800065e:	428c      	cmp	r4, r1
  bcc CopyDataInit
 8000660:	d3f9      	bcc.n	8000656 <CopyDataInit>
  
/* Zero fill the bss segment. */
  ldr r2, =_sbss
 8000662:	4a0a      	ldr	r2, [pc, #40]	@ (800068c <LoopForever+0x12>)
  ldr r4, =_ebss
 8000664:	4c0a      	ldr	r4, [pc, #40]	@ (8000690 <LoopForever+0x16>)
  movs r3, #0
 8000666:	2300      	movs	r3, #0
  b LoopFillZerobss
 8000668:	e001      	b.n	800066e <LoopFillZerobss>

0800066a <FillZerobss>:

FillZerobss:
  str  r3, [r2]
 800066a:	6013      	str	r3, [r2, #0]
  adds r2, r2, #4
 800066c:	3204      	adds	r2, #4

0800066e <LoopFillZerobss>:

LoopFillZerobss:
  cmp r2, r4
 800066e:	42a2      	cmp	r2, r4
  bcc FillZerobss
 8000670:	d3fb      	bcc.n	800066a <FillZerobss>

/* Call static constructors */
    bl __libc_init_array
 8000672:	f003 f87f 	bl	8003774 <__libc_init_array>
/* Call the application's entry point.*/
	bl	main
 8000676:	f7ff fde5 	bl	8000244 <main>

0800067a <LoopForever>:

LoopForever:
    b LoopForever
 800067a:	e7fe      	b.n	800067a <LoopForever>
  ldr   sp, =_estack    /* Set stack pointer */
 800067c:	200a0000 	.word	0x200a0000
  ldr r0, =_sdata
 8000680:	20000000 	.word	0x20000000
  ldr r1, =_edata
 8000684:	2000000c 	.word	0x2000000c
  ldr r2, =_sidata
 8000688:	0800381c 	.word	0x0800381c
  ldr r2, =_sbss
 800068c:	2000000c 	.word	0x2000000c
  ldr r4, =_ebss
 8000690:	20000098 	.word	0x20000098

08000694 <ADC1_IRQHandler>:
 * @retval : None
*/
    .section	.text.Default_Handler,"ax",%progbits
Default_Handler:
Infinite_Loop:
	b	Infinite_Loop
 8000694:	e7fe      	b.n	8000694 <ADC1_IRQHandler>

08000696 <HAL_Init>:
  *         each 1ms in the SysTick_Handler() interrupt handler.
  *
  * @retval HAL status
  */
HAL_StatusTypeDef HAL_Init(void)
{
 8000696:	b580      	push	{r7, lr}
 8000698:	b082      	sub	sp, #8
 800069a:	af00      	add	r7, sp, #0
  HAL_StatusTypeDef  status = HAL_OK;
 800069c:	2300      	movs	r3, #0
 800069e:	71fb      	strb	r3, [r7, #7]
#if (PREFETCH_ENABLE != 0)
  __HAL_FLASH_PREFETCH_BUFFER_ENABLE();
#endif /* PREFETCH_ENABLE */

  /* Set Interrupt Group Priority */
  HAL_NVIC_SetPriorityGrouping(NVIC_PRIORITYGROUP_4);
 80006a0:	2003      	movs	r0, #3
 80006a2:	f001 f9df 	bl	8001a64 <HAL_NVIC_SetPriorityGrouping>

  /* Use SysTick as time base source and configure 1ms tick (default clock after Reset is MSI) */
  if (HAL_InitTick(TICK_INT_PRIORITY) != HAL_OK)
 80006a6:	2000      	movs	r0, #0
 80006a8:	f000 f80e 	bl	80006c8 <HAL_InitTick>
 80006ac:	4603      	mov	r3, r0
 80006ae:	2b00      	cmp	r3, #0
 80006b0:	d002      	beq.n	80006b8 <HAL_Init+0x22>
  {
    status = HAL_ERROR;
 80006b2:	2301      	movs	r3, #1
 80006b4:	71fb      	strb	r3, [r7, #7]
 80006b6:	e001      	b.n	80006bc <HAL_Init+0x26>
  }
  else
  {
    /* Init the low level hardware */
    HAL_MspInit();
 80006b8:	f7ff ff12 	bl	80004e0 <HAL_MspInit>
  }

  /* Return function status */
  return status;
 80006bc:	79fb      	ldrb	r3, [r7, #7]
}
 80006be:	4618      	mov	r0, r3
 80006c0:	3708      	adds	r7, #8
 80006c2:	46bd      	mov	sp, r7
 80006c4:	bd80      	pop	{r7, pc}
	...

080006c8 <HAL_InitTick>:
  *       implementation  in user file.
  * @param TickPriority  Tick interrupt priority.
  * @retval HAL status
  */
__weak HAL_StatusTypeDef HAL_InitTick(uint32_t TickPriority)
{
 80006c8:	b580      	push	{r7, lr}
 80006ca:	b084      	sub	sp, #16
 80006cc:	af00      	add	r7, sp, #0
 80006ce:	6078      	str	r0, [r7, #4]
  HAL_StatusTypeDef  status = HAL_OK;
 80006d0:	2300      	movs	r3, #0
 80006d2:	73fb      	strb	r3, [r7, #15]

  /* Check uwTickFreq for MisraC 2012 (even if uwTickFreq is a enum type that doesn't take the value zero)*/
  if ((uint32_t)uwTickFreq != 0U)
 80006d4:	4b17      	ldr	r3, [pc, #92]	@ (8000734 <HAL_InitTick+0x6c>)
 80006d6:	781b      	ldrb	r3, [r3, #0]
 80006d8:	2b00      	cmp	r3, #0
 80006da:	d023      	beq.n	8000724 <HAL_InitTick+0x5c>
  {
    /*Configure the SysTick to have interrupt in 1ms time basis*/
    if (HAL_SYSTICK_Config(SystemCoreClock / (1000U / (uint32_t)uwTickFreq)) == 0U)
 80006dc:	4b16      	ldr	r3, [pc, #88]	@ (8000738 <HAL_InitTick+0x70>)
 80006de:	681a      	ldr	r2, [r3, #0]
 80006e0:	4b14      	ldr	r3, [pc, #80]	@ (8000734 <HAL_InitTick+0x6c>)
 80006e2:	781b      	ldrb	r3, [r3, #0]
 80006e4:	4619      	mov	r1, r3
 80006e6:	f44f 737a 	mov.w	r3, #1000	@ 0x3e8
 80006ea:	fbb3 f3f1 	udiv	r3, r3, r1
 80006ee:	fbb2 f3f3 	udiv	r3, r2, r3
 80006f2:	4618      	mov	r0, r3
 80006f4:	f001 f9eb 	bl	8001ace <HAL_SYSTICK_Config>
 80006f8:	4603      	mov	r3, r0
 80006fa:	2b00      	cmp	r3, #0
 80006fc:	d10f      	bne.n	800071e <HAL_InitTick+0x56>
    {
      /* Configure the SysTick IRQ priority */
      if (TickPriority < (1UL << __NVIC_PRIO_BITS))
 80006fe:	687b      	ldr	r3, [r7, #4]
 8000700:	2b0f      	cmp	r3, #15
 8000702:	d809      	bhi.n	8000718 <HAL_InitTick+0x50>
      {
        HAL_NVIC_SetPriority(SysTick_IRQn, TickPriority, 0U);
 8000704:	2200      	movs	r2, #0
 8000706:	6879      	ldr	r1, [r7, #4]
 8000708:	f04f 30ff 	mov.w	r0, #4294967295
 800070c:	f001 f9b5 	bl	8001a7a <HAL_NVIC_SetPriority>
        uwTickPrio = TickPriority;
 8000710:	4a0a      	ldr	r2, [pc, #40]	@ (800073c <HAL_InitTick+0x74>)
 8000712:	687b      	ldr	r3, [r7, #4]
 8000714:	6013      	str	r3, [r2, #0]
 8000716:	e007      	b.n	8000728 <HAL_InitTick+0x60>
      }
      else
      {
        status = HAL_ERROR;
 8000718:	2301      	movs	r3, #1
 800071a:	73fb      	strb	r3, [r7, #15]
 800071c:	e004      	b.n	8000728 <HAL_InitTick+0x60>
      }
    }
    else
    {
      status = HAL_ERROR;
 800071e:	2301      	movs	r3, #1
 8000720:	73fb      	strb	r3, [r7, #15]
 8000722:	e001      	b.n	8000728 <HAL_InitTick+0x60>
    }
  }
  else
  {
    status = HAL_ERROR;
 8000724:	2301      	movs	r3, #1
 8000726:	73fb      	strb	r3, [r7, #15]
  }

  /* Return function status */
  return status;
 8000728:	7bfb      	ldrb	r3, [r7, #15]
}
 800072a:	4618      	mov	r0, r3
 800072c:	3710      	adds	r7, #16
 800072e:	46bd      	mov	sp, r7
 8000730:	bd80      	pop	{r7, pc}
 8000732:	bf00      	nop
 8000734:	20000008 	.word	0x20000008
 8000738:	20000000 	.word	0x20000000
 800073c:	20000004 	.word	0x20000004

08000740 <HAL_IncTick>:
 * @note This function is declared as __weak to be overwritten in case of other
  *      implementations in user file.
  * @retval None
  */
__weak void HAL_IncTick(void)
{
 8000740:	b480      	push	{r7}
 8000742:	af00      	add	r7, sp, #0
  uwTick += (uint32_t)uwTickFreq;
 8000744:	4b06      	ldr	r3, [pc, #24]	@ (8000760 <HAL_IncTick+0x20>)
 8000746:	781b      	ldrb	r3, [r3, #0]
 8000748:	461a      	mov	r2, r3
 800074a:	4b06      	ldr	r3, [pc, #24]	@ (8000764 <HAL_IncTick+0x24>)
 800074c:	681b      	ldr	r3, [r3, #0]
 800074e:	4413      	add	r3, r2
 8000750:	4a04      	ldr	r2, [pc, #16]	@ (8000764 <HAL_IncTick+0x24>)
 8000752:	6013      	str	r3, [r2, #0]
}
 8000754:	bf00      	nop
 8000756:	46bd      	mov	sp, r7
 8000758:	f85d 7b04 	ldr.w	r7, [sp], #4
 800075c:	4770      	bx	lr
 800075e:	bf00      	nop
 8000760:	20000008 	.word	0x20000008
 8000764:	20000094 	.word	0x20000094

08000768 <HAL_GetTick>:
  * @note This function is declared as __weak to be overwritten in case of other
  *       implementations in user file.
  * @retval tick value
  */
__weak uint32_t HAL_GetTick(void)
{
 8000768:	b480      	push	{r7}
 800076a:	af00      	add	r7, sp, #0
  return uwTick;
 800076c:	4b03      	ldr	r3, [pc, #12]	@ (800077c <HAL_GetTick+0x14>)
 800076e:	681b      	ldr	r3, [r3, #0]
}
 8000770:	4618      	mov	r0, r3
 8000772:	46bd      	mov	sp, r7
 8000774:	f85d 7b04 	ldr.w	r7, [sp], #4
 8000778:	4770      	bx	lr
 800077a:	bf00      	nop
 800077c:	20000094 	.word	0x20000094

08000780 <LL_ADC_SetCommonClock>:
  *         @arg @ref LL_ADC_CLOCK_ASYNC_DIV128
  *         @arg @ref LL_ADC_CLOCK_ASYNC_DIV256
  * @retval None
  */
__STATIC_INLINE void LL_ADC_SetCommonClock(ADC_Common_TypeDef *ADCxy_COMMON, uint32_t CommonClock)
{
 8000780:	b480      	push	{r7}
 8000782:	b083      	sub	sp, #12
 8000784:	af00      	add	r7, sp, #0
 8000786:	6078      	str	r0, [r7, #4]
 8000788:	6039      	str	r1, [r7, #0]
  MODIFY_REG(ADCxy_COMMON->CCR, ADC_CCR_CKMODE | ADC_CCR_PRESC, CommonClock);
 800078a:	687b      	ldr	r3, [r7, #4]
 800078c:	689b      	ldr	r3, [r3, #8]
 800078e:	f423 127c 	bic.w	r2, r3, #4128768	@ 0x3f0000
 8000792:	683b      	ldr	r3, [r7, #0]
 8000794:	431a      	orrs	r2, r3
 8000796:	687b      	ldr	r3, [r7, #4]
 8000798:	609a      	str	r2, [r3, #8]
}
 800079a:	bf00      	nop
 800079c:	370c      	adds	r7, #12
 800079e:	46bd      	mov	sp, r7
 80007a0:	f85d 7b04 	ldr.w	r7, [sp], #4
 80007a4:	4770      	bx	lr

080007a6 <LL_ADC_SetCommonPathInternalCh>:
  *         @arg @ref LL_ADC_PATH_INTERNAL_TEMPSENSOR
  *         @arg @ref LL_ADC_PATH_INTERNAL_VBAT
  * @retval None
  */
__STATIC_INLINE void LL_ADC_SetCommonPathInternalCh(ADC_Common_TypeDef *ADCxy_COMMON, uint32_t PathInternal)
{
 80007a6:	b480      	push	{r7}
 80007a8:	b083      	sub	sp, #12
 80007aa:	af00      	add	r7, sp, #0
 80007ac:	6078      	str	r0, [r7, #4]
 80007ae:	6039      	str	r1, [r7, #0]
  MODIFY_REG(ADCxy_COMMON->CCR, ADC_CCR_VREFEN | ADC_CCR_TSEN | ADC_CCR_VBATEN, PathInternal);
 80007b0:	687b      	ldr	r3, [r7, #4]
 80007b2:	689b      	ldr	r3, [r3, #8]
 80007b4:	f023 72e0 	bic.w	r2, r3, #29360128	@ 0x1c00000
 80007b8:	683b      	ldr	r3, [r7, #0]
 80007ba:	431a      	orrs	r2, r3
 80007bc:	687b      	ldr	r3, [r7, #4]
 80007be:	609a      	str	r2, [r3, #8]
}
 80007c0:	bf00      	nop
 80007c2:	370c      	adds	r7, #12
 80007c4:	46bd      	mov	sp, r7
 80007c6:	f85d 7b04 	ldr.w	r7, [sp], #4
 80007ca:	4770      	bx	lr

080007cc <LL_ADC_GetCommonPathInternalCh>:
  *         @arg @ref LL_ADC_PATH_INTERNAL_VREFINT
  *         @arg @ref LL_ADC_PATH_INTERNAL_TEMPSENSOR
  *         @arg @ref LL_ADC_PATH_INTERNAL_VBAT
  */
__STATIC_INLINE uint32_t LL_ADC_GetCommonPathInternalCh(const ADC_Common_TypeDef *ADCxy_COMMON)
{
 80007cc:	b480      	push	{r7}
 80007ce:	b083      	sub	sp, #12
 80007d0:	af00      	add	r7, sp, #0
 80007d2:	6078      	str	r0, [r7, #4]
  return (uint32_t)(READ_BIT(ADCxy_COMMON->CCR, ADC_CCR_VREFEN | ADC_CCR_TSEN | ADC_CCR_VBATEN));
 80007d4:	687b      	ldr	r3, [r7, #4]
 80007d6:	689b      	ldr	r3, [r3, #8]
 80007d8:	f003 73e0 	and.w	r3, r3, #29360128	@ 0x1c00000
}
 80007dc:	4618      	mov	r0, r3
 80007de:	370c      	adds	r7, #12
 80007e0:	46bd      	mov	sp, r7
 80007e2:	f85d 7b04 	ldr.w	r7, [sp], #4
 80007e6:	4770      	bx	lr

080007e8 <LL_ADC_SetOffset>:
  *             Other channels are slow channels (0.238 us for 12-bit resolution (ADC conversion rate up to 4.21 Ms/s)).
  * @param  OffsetLevel Value between Min_Data=0x000 and Max_Data=0xFFF
  * @retval None
  */
__STATIC_INLINE void LL_ADC_SetOffset(ADC_TypeDef *ADCx, uint32_t Offsety, uint32_t Channel, uint32_t OffsetLevel)
{
 80007e8:	b480      	push	{r7}
 80007ea:	b087      	sub	sp, #28
 80007ec:	af00      	add	r7, sp, #0
 80007ee:	60f8      	str	r0, [r7, #12]
 80007f0:	60b9      	str	r1, [r7, #8]
 80007f2:	607a      	str	r2, [r7, #4]
 80007f4:	603b      	str	r3, [r7, #0]
  __IO uint32_t *preg = __ADC_PTR_REG_OFFSET(ADCx->OFR1, Offsety);
 80007f6:	68fb      	ldr	r3, [r7, #12]
 80007f8:	3360      	adds	r3, #96	@ 0x60
 80007fa:	461a      	mov	r2, r3
 80007fc:	68bb      	ldr	r3, [r7, #8]
 80007fe:	009b      	lsls	r3, r3, #2
 8000800:	4413      	add	r3, r2
 8000802:	617b      	str	r3, [r7, #20]

  MODIFY_REG(*preg,
 8000804:	697b      	ldr	r3, [r7, #20]
 8000806:	681a      	ldr	r2, [r3, #0]
 8000808:	4b08      	ldr	r3, [pc, #32]	@ (800082c <LL_ADC_SetOffset+0x44>)
 800080a:	4013      	ands	r3, r2
 800080c:	687a      	ldr	r2, [r7, #4]
 800080e:	f002 41f8 	and.w	r1, r2, #2080374784	@ 0x7c000000
 8000812:	683a      	ldr	r2, [r7, #0]
 8000814:	430a      	orrs	r2, r1
 8000816:	4313      	orrs	r3, r2
 8000818:	f043 4200 	orr.w	r2, r3, #2147483648	@ 0x80000000
 800081c:	697b      	ldr	r3, [r7, #20]
 800081e:	601a      	str	r2, [r3, #0]
             ADC_OFR1_OFFSET1_EN | ADC_OFR1_OFFSET1_CH | ADC_OFR1_OFFSET1,
             ADC_OFR1_OFFSET1_EN | (Channel & ADC_CHANNEL_ID_NUMBER_MASK) | OffsetLevel);
}
 8000820:	bf00      	nop
 8000822:	371c      	adds	r7, #28
 8000824:	46bd      	mov	sp, r7
 8000826:	f85d 7b04 	ldr.w	r7, [sp], #4
 800082a:	4770      	bx	lr
 800082c:	03fff000 	.word	0x03fff000

08000830 <LL_ADC_GetOffsetChannel>:
  *         (1, 2, 3, 4) For ADC channel read back from ADC register,
  *                      comparison with internal channel parameter to be done
  *                      using helper macro @ref __LL_ADC_CHANNEL_INTERNAL_TO_EXTERNAL().
  */
__STATIC_INLINE uint32_t LL_ADC_GetOffsetChannel(const ADC_TypeDef *ADCx, uint32_t Offsety)
{
 8000830:	b480      	push	{r7}
 8000832:	b085      	sub	sp, #20
 8000834:	af00      	add	r7, sp, #0
 8000836:	6078      	str	r0, [r7, #4]
 8000838:	6039      	str	r1, [r7, #0]
  const __IO uint32_t *preg = __ADC_PTR_REG_OFFSET(ADCx->OFR1, Offsety);
 800083a:	687b      	ldr	r3, [r7, #4]
 800083c:	3360      	adds	r3, #96	@ 0x60
 800083e:	461a      	mov	r2, r3
 8000840:	683b      	ldr	r3, [r7, #0]
 8000842:	009b      	lsls	r3, r3, #2
 8000844:	4413      	add	r3, r2
 8000846:	60fb      	str	r3, [r7, #12]

  return (uint32_t) READ_BIT(*preg, ADC_OFR1_OFFSET1_CH);
 8000848:	68fb      	ldr	r3, [r7, #12]
 800084a:	681b      	ldr	r3, [r3, #0]
 800084c:	f003 43f8 	and.w	r3, r3, #2080374784	@ 0x7c000000
}
 8000850:	4618      	mov	r0, r3
 8000852:	3714      	adds	r7, #20
 8000854:	46bd      	mov	sp, r7
 8000856:	f85d 7b04 	ldr.w	r7, [sp], #4
 800085a:	4770      	bx	lr

0800085c <LL_ADC_SetOffsetState>:
  *         @arg @ref LL_ADC_OFFSET_DISABLE
  *         @arg @ref LL_ADC_OFFSET_ENABLE
  * @retval None
  */
__STATIC_INLINE void LL_ADC_SetOffsetState(ADC_TypeDef *ADCx, uint32_t Offsety, uint32_t OffsetState)
{
 800085c:	b480      	push	{r7}
 800085e:	b087      	sub	sp, #28
 8000860:	af00      	add	r7, sp, #0
 8000862:	60f8      	str	r0, [r7, #12]
 8000864:	60b9      	str	r1, [r7, #8]
 8000866:	607a      	str	r2, [r7, #4]
  __IO uint32_t *preg = __ADC_PTR_REG_OFFSET(ADCx->OFR1, Offsety);
 8000868:	68fb      	ldr	r3, [r7, #12]
 800086a:	3360      	adds	r3, #96	@ 0x60
 800086c:	461a      	mov	r2, r3
 800086e:	68bb      	ldr	r3, [r7, #8]
 8000870:	009b      	lsls	r3, r3, #2
 8000872:	4413      	add	r3, r2
 8000874:	617b      	str	r3, [r7, #20]

  MODIFY_REG(*preg,
 8000876:	697b      	ldr	r3, [r7, #20]
 8000878:	681b      	ldr	r3, [r3, #0]
 800087a:	f023 4200 	bic.w	r2, r3, #2147483648	@ 0x80000000
 800087e:	687b      	ldr	r3, [r7, #4]
 8000880:	431a      	orrs	r2, r3
 8000882:	697b      	ldr	r3, [r7, #20]
 8000884:	601a      	str	r2, [r3, #0]
             ADC_OFR1_OFFSET1_EN,
             OffsetState);
}
 8000886:	bf00      	nop
 8000888:	371c      	adds	r7, #28
 800088a:	46bd      	mov	sp, r7
 800088c:	f85d 7b04 	ldr.w	r7, [sp], #4
 8000890:	4770      	bx	lr

08000892 <LL_ADC_SetSamplingTimeCommonConfig>:
  *         @arg @ref LL_ADC_SAMPLINGTIME_COMMON_DEFAULT
  *         @arg @ref LL_ADC_SAMPLINGTIME_COMMON_3C5_REPL_2C5
  * @retval None
  */
__STATIC_INLINE void LL_ADC_SetSamplingTimeCommonConfig(ADC_TypeDef *ADCx, uint32_t SamplingTimeCommonConfig)
{
 8000892:	b480      	push	{r7}
 8000894:	b083      	sub	sp, #12
 8000896:	af00      	add	r7, sp, #0
 8000898:	6078      	str	r0, [r7, #4]
 800089a:	6039      	str	r1, [r7, #0]
  MODIFY_REG(ADCx->SMPR1, ADC_SMPR1_SMPPLUS, SamplingTimeCommonConfig);
 800089c:	687b      	ldr	r3, [r7, #4]
 800089e:	695b      	ldr	r3, [r3, #20]
 80008a0:	f023 4200 	bic.w	r2, r3, #2147483648	@ 0x80000000
 80008a4:	683b      	ldr	r3, [r7, #0]
 80008a6:	431a      	orrs	r2, r3
 80008a8:	687b      	ldr	r3, [r7, #4]
 80008aa:	615a      	str	r2, [r3, #20]
}
 80008ac:	bf00      	nop
 80008ae:	370c      	adds	r7, #12
 80008b0:	46bd      	mov	sp, r7
 80008b2:	f85d 7b04 	ldr.w	r7, [sp], #4
 80008b6:	4770      	bx	lr

080008b8 <LL_ADC_REG_IsTriggerSourceSWStart>:
  * @param  ADCx ADC instance
  * @retval Value "0" if trigger source external trigger
  *         Value "1" if trigger source SW start.
  */
__STATIC_INLINE uint32_t LL_ADC_REG_IsTriggerSourceSWStart(const ADC_TypeDef *ADCx)
{
 80008b8:	b480      	push	{r7}
 80008ba:	b083      	sub	sp, #12
 80008bc:	af00      	add	r7, sp, #0
 80008be:	6078      	str	r0, [r7, #4]
  return ((READ_BIT(ADCx->CFGR, ADC_CFGR_EXTEN) == (LL_ADC_REG_TRIG_SOFTWARE & ADC_CFGR_EXTEN)) ? 1UL : 0UL);
 80008c0:	687b      	ldr	r3, [r7, #4]
 80008c2:	68db      	ldr	r3, [r3, #12]
 80008c4:	f403 6340 	and.w	r3, r3, #3072	@ 0xc00
 80008c8:	2b00      	cmp	r3, #0
 80008ca:	d101      	bne.n	80008d0 <LL_ADC_REG_IsTriggerSourceSWStart+0x18>
 80008cc:	2301      	movs	r3, #1
 80008ce:	e000      	b.n	80008d2 <LL_ADC_REG_IsTriggerSourceSWStart+0x1a>
 80008d0:	2300      	movs	r3, #0
}
 80008d2:	4618      	mov	r0, r3
 80008d4:	370c      	adds	r7, #12
 80008d6:	46bd      	mov	sp, r7
 80008d8:	f85d 7b04 	ldr.w	r7, [sp], #4
 80008dc:	4770      	bx	lr

080008de <LL_ADC_REG_SetSequencerRanks>:
  *         (7) On STM32L4, fast channel (0.188 us for 12-bit resolution (ADC conversion rate up to 5.33 Ms/s)).
  *             Other channels are slow channels (0.238 us for 12-bit resolution (ADC conversion rate up to 4.21 Ms/s)).
  * @retval None
  */
__STATIC_INLINE void LL_ADC_REG_SetSequencerRanks(ADC_TypeDef *ADCx, uint32_t Rank, uint32_t Channel)
{
 80008de:	b480      	push	{r7}
 80008e0:	b087      	sub	sp, #28
 80008e2:	af00      	add	r7, sp, #0
 80008e4:	60f8      	str	r0, [r7, #12]
 80008e6:	60b9      	str	r1, [r7, #8]
 80008e8:	607a      	str	r2, [r7, #4]
  /* Set bits with content of parameter "Channel" with bits position          */
  /* in register and register position depending on parameter "Rank".         */
  /* Parameters "Rank" and "Channel" are used with masks because containing   */
  /* other bits reserved for other purpose.                                   */
  __IO uint32_t *preg = __ADC_PTR_REG_OFFSET(ADCx->SQR1,
 80008ea:	68fb      	ldr	r3, [r7, #12]
 80008ec:	3330      	adds	r3, #48	@ 0x30
 80008ee:	461a      	mov	r2, r3
 80008f0:	68bb      	ldr	r3, [r7, #8]
 80008f2:	0a1b      	lsrs	r3, r3, #8
 80008f4:	009b      	lsls	r3, r3, #2
 80008f6:	f003 030c 	and.w	r3, r3, #12
 80008fa:	4413      	add	r3, r2
 80008fc:	617b      	str	r3, [r7, #20]
                                             ((Rank & ADC_REG_SQRX_REGOFFSET_MASK) >> ADC_SQRX_REGOFFSET_POS));

  MODIFY_REG(*preg,
 80008fe:	697b      	ldr	r3, [r7, #20]
 8000900:	681a      	ldr	r2, [r3, #0]
 8000902:	68bb      	ldr	r3, [r7, #8]
 8000904:	f003 031f 	and.w	r3, r3, #31
 8000908:	211f      	movs	r1, #31
 800090a:	fa01 f303 	lsl.w	r3, r1, r3
 800090e:	43db      	mvns	r3, r3
 8000910:	401a      	ands	r2, r3
 8000912:	687b      	ldr	r3, [r7, #4]
 8000914:	0e9b      	lsrs	r3, r3, #26
 8000916:	f003 011f 	and.w	r1, r3, #31
 800091a:	68bb      	ldr	r3, [r7, #8]
 800091c:	f003 031f 	and.w	r3, r3, #31
 8000920:	fa01 f303 	lsl.w	r3, r1, r3
 8000924:	431a      	orrs	r2, r3
 8000926:	697b      	ldr	r3, [r7, #20]
 8000928:	601a      	str	r2, [r3, #0]
             ADC_CHANNEL_ID_NUMBER_MASK_POSBIT0 << (Rank & ADC_REG_RANK_ID_SQRX_MASK),
             ((Channel & ADC_CHANNEL_ID_NUMBER_MASK) >> ADC_CHANNEL_ID_NUMBER_BITOFFSET_POS)
             << (Rank & ADC_REG_RANK_ID_SQRX_MASK));
}
 800092a:	bf00      	nop
 800092c:	371c      	adds	r7, #28
 800092e:	46bd      	mov	sp, r7
 8000930:	f85d 7b04 	ldr.w	r7, [sp], #4
 8000934:	4770      	bx	lr

08000936 <LL_ADC_SetChannelSamplingTime>:
  *             can be replaced by 3.5 ADC clock cycles.
  *             Refer to function @ref LL_ADC_SetSamplingTimeCommonConfig().
  * @retval None
  */
__STATIC_INLINE void LL_ADC_SetChannelSamplingTime(ADC_TypeDef *ADCx, uint32_t Channel, uint32_t SamplingTime)
{
 8000936:	b480      	push	{r7}
 8000938:	b087      	sub	sp, #28
 800093a:	af00      	add	r7, sp, #0
 800093c:	60f8      	str	r0, [r7, #12]
 800093e:	60b9      	str	r1, [r7, #8]
 8000940:	607a      	str	r2, [r7, #4]
  /* Set bits with content of parameter "SamplingTime" with bits position     */
  /* in register and register position depending on parameter "Channel".      */
  /* Parameter "Channel" is used with masks because containing                */
  /* other bits reserved for other purpose.                                   */
  __IO uint32_t *preg = __ADC_PTR_REG_OFFSET(ADCx->SMPR1,
 8000942:	68fb      	ldr	r3, [r7, #12]
 8000944:	3314      	adds	r3, #20
 8000946:	461a      	mov	r2, r3
 8000948:	68bb      	ldr	r3, [r7, #8]
 800094a:	0e5b      	lsrs	r3, r3, #25
 800094c:	009b      	lsls	r3, r3, #2
 800094e:	f003 0304 	and.w	r3, r3, #4
 8000952:	4413      	add	r3, r2
 8000954:	617b      	str	r3, [r7, #20]
                                             ((Channel & ADC_CHANNEL_SMPRX_REGOFFSET_MASK) >> ADC_SMPRX_REGOFFSET_POS));

  MODIFY_REG(*preg,
 8000956:	697b      	ldr	r3, [r7, #20]
 8000958:	681a      	ldr	r2, [r3, #0]
 800095a:	68bb      	ldr	r3, [r7, #8]
 800095c:	0d1b      	lsrs	r3, r3, #20
 800095e:	f003 031f 	and.w	r3, r3, #31
 8000962:	2107      	movs	r1, #7
 8000964:	fa01 f303 	lsl.w	r3, r1, r3
 8000968:	43db      	mvns	r3, r3
 800096a:	401a      	ands	r2, r3
 800096c:	68bb      	ldr	r3, [r7, #8]
 800096e:	0d1b      	lsrs	r3, r3, #20
 8000970:	f003 031f 	and.w	r3, r3, #31
 8000974:	6879      	ldr	r1, [r7, #4]
 8000976:	fa01 f303 	lsl.w	r3, r1, r3
 800097a:	431a      	orrs	r2, r3
 800097c:	697b      	ldr	r3, [r7, #20]
 800097e:	601a      	str	r2, [r3, #0]
             ADC_SMPR1_SMP0 << ((Channel & ADC_CHANNEL_SMPx_BITOFFSET_MASK) >> ADC_CHANNEL_SMPx_BITOFFSET_POS),
             SamplingTime   << ((Channel & ADC_CHANNEL_SMPx_BITOFFSET_MASK) >> ADC_CHANNEL_SMPx_BITOFFSET_POS));
}
 8000980:	bf00      	nop
 8000982:	371c      	adds	r7, #28
 8000984:	46bd      	mov	sp, r7
 8000986:	f85d 7b04 	ldr.w	r7, [sp], #4
 800098a:	4770      	bx	lr

0800098c <LL_ADC_SetChannelSingleDiff>:
  *         @arg @ref LL_ADC_SINGLE_ENDED
  *         @arg @ref LL_ADC_DIFFERENTIAL_ENDED
  * @retval None
  */
__STATIC_INLINE void LL_ADC_SetChannelSingleDiff(ADC_TypeDef *ADCx, uint32_t Channel, uint32_t SingleDiff)
{
 800098c:	b480      	push	{r7}
 800098e:	b085      	sub	sp, #20
 8000990:	af00      	add	r7, sp, #0
 8000992:	60f8      	str	r0, [r7, #12]
 8000994:	60b9      	str	r1, [r7, #8]
 8000996:	607a      	str	r2, [r7, #4]
  /* Bits of channels in single or differential mode are set only for         */
  /* differential mode (for single mode, mask of bits allowed to be set is    */
  /* shifted out of range of bits of channels in single or differential mode. */
  MODIFY_REG(ADCx->DIFSEL,
 8000998:	68fb      	ldr	r3, [r7, #12]
 800099a:	f8d3 20b0 	ldr.w	r2, [r3, #176]	@ 0xb0
 800099e:	68bb      	ldr	r3, [r7, #8]
 80009a0:	f3c3 0312 	ubfx	r3, r3, #0, #19
 80009a4:	43db      	mvns	r3, r3
 80009a6:	401a      	ands	r2, r3
 80009a8:	687b      	ldr	r3, [r7, #4]
 80009aa:	f003 0318 	and.w	r3, r3, #24
 80009ae:	4908      	ldr	r1, [pc, #32]	@ (80009d0 <LL_ADC_SetChannelSingleDiff+0x44>)
 80009b0:	40d9      	lsrs	r1, r3
 80009b2:	68bb      	ldr	r3, [r7, #8]
 80009b4:	400b      	ands	r3, r1
 80009b6:	f3c3 0312 	ubfx	r3, r3, #0, #19
 80009ba:	431a      	orrs	r2, r3
 80009bc:	68fb      	ldr	r3, [r7, #12]
 80009be:	f8c3 20b0 	str.w	r2, [r3, #176]	@ 0xb0
             Channel & ADC_SINGLEDIFF_CHANNEL_MASK,
             (Channel & ADC_SINGLEDIFF_CHANNEL_MASK)
             & (ADC_DIFSEL_DIFSEL >> (SingleDiff & ADC_SINGLEDIFF_CHANNEL_SHIFT_MASK)));
}
 80009c2:	bf00      	nop
 80009c4:	3714      	adds	r7, #20
 80009c6:	46bd      	mov	sp, r7
 80009c8:	f85d 7b04 	ldr.w	r7, [sp], #4
 80009cc:	4770      	bx	lr
 80009ce:	bf00      	nop
 80009d0:	0007ffff 	.word	0x0007ffff

080009d4 <LL_ADC_DisableDeepPowerDown>:
  * @rmtoll CR       DEEPPWD        LL_ADC_DisableDeepPowerDown
  * @param  ADCx ADC instance
  * @retval None
  */
__STATIC_INLINE void LL_ADC_DisableDeepPowerDown(ADC_TypeDef *ADCx)
{
 80009d4:	b480      	push	{r7}
 80009d6:	b083      	sub	sp, #12
 80009d8:	af00      	add	r7, sp, #0
 80009da:	6078      	str	r0, [r7, #4]
  /* Note: Write register with some additional bits forced to state reset     */
  /*       instead of modifying only the selected bit for this function,      */
  /*       to not interfere with bits with HW property "rs".                  */
  CLEAR_BIT(ADCx->CR, (ADC_CR_DEEPPWD | ADC_CR_BITS_PROPERTY_RS));
 80009dc:	687b      	ldr	r3, [r7, #4]
 80009de:	689b      	ldr	r3, [r3, #8]
 80009e0:	f023 4320 	bic.w	r3, r3, #2684354560	@ 0xa0000000
 80009e4:	f023 033f 	bic.w	r3, r3, #63	@ 0x3f
 80009e8:	687a      	ldr	r2, [r7, #4]
 80009ea:	6093      	str	r3, [r2, #8]
}
 80009ec:	bf00      	nop
 80009ee:	370c      	adds	r7, #12
 80009f0:	46bd      	mov	sp, r7
 80009f2:	f85d 7b04 	ldr.w	r7, [sp], #4
 80009f6:	4770      	bx	lr

080009f8 <LL_ADC_IsDeepPowerDownEnabled>:
  * @rmtoll CR       DEEPPWD        LL_ADC_IsDeepPowerDownEnabled
  * @param  ADCx ADC instance
  * @retval 0: deep power down is disabled, 1: deep power down is enabled.
  */
__STATIC_INLINE uint32_t LL_ADC_IsDeepPowerDownEnabled(const ADC_TypeDef *ADCx)
{
 80009f8:	b480      	push	{r7}
 80009fa:	b083      	sub	sp, #12
 80009fc:	af00      	add	r7, sp, #0
 80009fe:	6078      	str	r0, [r7, #4]
  return ((READ_BIT(ADCx->CR, ADC_CR_DEEPPWD) == (ADC_CR_DEEPPWD)) ? 1UL : 0UL);
 8000a00:	687b      	ldr	r3, [r7, #4]
 8000a02:	689b      	ldr	r3, [r3, #8]
 8000a04:	f003 5300 	and.w	r3, r3, #536870912	@ 0x20000000
 8000a08:	f1b3 5f00 	cmp.w	r3, #536870912	@ 0x20000000
 8000a0c:	d101      	bne.n	8000a12 <LL_ADC_IsDeepPowerDownEnabled+0x1a>
 8000a0e:	2301      	movs	r3, #1
 8000a10:	e000      	b.n	8000a14 <LL_ADC_IsDeepPowerDownEnabled+0x1c>
 8000a12:	2300      	movs	r3, #0
}
 8000a14:	4618      	mov	r0, r3
 8000a16:	370c      	adds	r7, #12
 8000a18:	46bd      	mov	sp, r7
 8000a1a:	f85d 7b04 	ldr.w	r7, [sp], #4
 8000a1e:	4770      	bx	lr

08000a20 <LL_ADC_EnableInternalRegulator>:
  * @rmtoll CR       ADVREGEN       LL_ADC_EnableInternalRegulator
  * @param  ADCx ADC instance
  * @retval None
  */
__STATIC_INLINE void LL_ADC_EnableInternalRegulator(ADC_TypeDef *ADCx)
{
 8000a20:	b480      	push	{r7}
 8000a22:	b083      	sub	sp, #12
 8000a24:	af00      	add	r7, sp, #0
 8000a26:	6078      	str	r0, [r7, #4]
  /* Note: Write register with some additional bits forced to state reset     */
  /*       instead of modifying only the selected bit for this function,      */
  /*       to not interfere with bits with HW property "rs".                  */
  MODIFY_REG(ADCx->CR,
 8000a28:	687b      	ldr	r3, [r7, #4]
 8000a2a:	689b      	ldr	r3, [r3, #8]
 8000a2c:	f023 4310 	bic.w	r3, r3, #2415919104	@ 0x90000000
 8000a30:	f023 033f 	bic.w	r3, r3, #63	@ 0x3f
 8000a34:	f043 5280 	orr.w	r2, r3, #268435456	@ 0x10000000
 8000a38:	687b      	ldr	r3, [r7, #4]
 8000a3a:	609a      	str	r2, [r3, #8]
             ADC_CR_BITS_PROPERTY_RS,
             ADC_CR_ADVREGEN);
}
 8000a3c:	bf00      	nop
 8000a3e:	370c      	adds	r7, #12
 8000a40:	46bd      	mov	sp, r7
 8000a42:	f85d 7b04 	ldr.w	r7, [sp], #4
 8000a46:	4770      	bx	lr

08000a48 <LL_ADC_IsInternalRegulatorEnabled>:
  * @rmtoll CR       ADVREGEN       LL_ADC_IsInternalRegulatorEnabled
  * @param  ADCx ADC instance
  * @retval 0: internal regulator is disabled, 1: internal regulator is enabled.
  */
__STATIC_INLINE uint32_t LL_ADC_IsInternalRegulatorEnabled(const ADC_TypeDef *ADCx)
{
 8000a48:	b480      	push	{r7}
 8000a4a:	b083      	sub	sp, #12
 8000a4c:	af00      	add	r7, sp, #0
 8000a4e:	6078      	str	r0, [r7, #4]
  return ((READ_BIT(ADCx->CR, ADC_CR_ADVREGEN) == (ADC_CR_ADVREGEN)) ? 1UL : 0UL);
 8000a50:	687b      	ldr	r3, [r7, #4]
 8000a52:	689b      	ldr	r3, [r3, #8]
 8000a54:	f003 5380 	and.w	r3, r3, #268435456	@ 0x10000000
 8000a58:	f1b3 5f80 	cmp.w	r3, #268435456	@ 0x10000000
 8000a5c:	d101      	bne.n	8000a62 <LL_ADC_IsInternalRegulatorEnabled+0x1a>
 8000a5e:	2301      	movs	r3, #1
 8000a60:	e000      	b.n	8000a64 <LL_ADC_IsInternalRegulatorEnabled+0x1c>
 8000a62:	2300      	movs	r3, #0
}
 8000a64:	4618      	mov	r0, r3
 8000a66:	370c      	adds	r7, #12
 8000a68:	46bd      	mov	sp, r7
 8000a6a:	f85d 7b04 	ldr.w	r7, [sp], #4
 8000a6e:	4770      	bx	lr

08000a70 <LL_ADC_Enable>:
  * @rmtoll CR       ADEN           LL_ADC_Enable
  * @param  ADCx ADC instance
  * @retval None
  */
__STATIC_INLINE void LL_ADC_Enable(ADC_TypeDef *ADCx)
{
 8000a70:	b480      	push	{r7}
 8000a72:	b083      	sub	sp, #12
 8000a74:	af00      	add	r7, sp, #0
 8000a76:	6078      	str	r0, [r7, #4]
  /* Note: Write register with some additional bits forced to state reset     */
  /*       instead of modifying only the selected bit for this function,      */
  /*       to not interfere with bits with HW property "rs".                  */
  MODIFY_REG(ADCx->CR,
 8000a78:	687b      	ldr	r3, [r7, #4]
 8000a7a:	689b      	ldr	r3, [r3, #8]
 8000a7c:	f023 4300 	bic.w	r3, r3, #2147483648	@ 0x80000000
 8000a80:	f023 033f 	bic.w	r3, r3, #63	@ 0x3f
 8000a84:	f043 0201 	orr.w	r2, r3, #1
 8000a88:	687b      	ldr	r3, [r7, #4]
 8000a8a:	609a      	str	r2, [r3, #8]
             ADC_CR_BITS_PROPERTY_RS,
             ADC_CR_ADEN);
}
 8000a8c:	bf00      	nop
 8000a8e:	370c      	adds	r7, #12
 8000a90:	46bd      	mov	sp, r7
 8000a92:	f85d 7b04 	ldr.w	r7, [sp], #4
 8000a96:	4770      	bx	lr

08000a98 <LL_ADC_IsEnabled>:
  * @rmtoll CR       ADEN           LL_ADC_IsEnabled
  * @param  ADCx ADC instance
  * @retval 0: ADC is disabled, 1: ADC is enabled.
  */
__STATIC_INLINE uint32_t LL_ADC_IsEnabled(const ADC_TypeDef *ADCx)
{
 8000a98:	b480      	push	{r7}
 8000a9a:	b083      	sub	sp, #12
 8000a9c:	af00      	add	r7, sp, #0
 8000a9e:	6078      	str	r0, [r7, #4]
  return ((READ_BIT(ADCx->CR, ADC_CR_ADEN) == (ADC_CR_ADEN)) ? 1UL : 0UL);
 8000aa0:	687b      	ldr	r3, [r7, #4]
 8000aa2:	689b      	ldr	r3, [r3, #8]
 8000aa4:	f003 0301 	and.w	r3, r3, #1
 8000aa8:	2b01      	cmp	r3, #1
 8000aaa:	d101      	bne.n	8000ab0 <LL_ADC_IsEnabled+0x18>
 8000aac:	2301      	movs	r3, #1
 8000aae:	e000      	b.n	8000ab2 <LL_ADC_IsEnabled+0x1a>
 8000ab0:	2300      	movs	r3, #0
}
 8000ab2:	4618      	mov	r0, r3
 8000ab4:	370c      	adds	r7, #12
 8000ab6:	46bd      	mov	sp, r7
 8000ab8:	f85d 7b04 	ldr.w	r7, [sp], #4
 8000abc:	4770      	bx	lr

08000abe <LL_ADC_REG_StartConversion>:
  * @rmtoll CR       ADSTART        LL_ADC_REG_StartConversion
  * @param  ADCx ADC instance
  * @retval None
  */
__STATIC_INLINE void LL_ADC_REG_StartConversion(ADC_TypeDef *ADCx)
{
 8000abe:	b480      	push	{r7}
 8000ac0:	b083      	sub	sp, #12
 8000ac2:	af00      	add	r7, sp, #0
 8000ac4:	6078      	str	r0, [r7, #4]
  /* Note: Write register with some additional bits forced to state reset     */
  /*       instead of modifying only the selected bit for this function,      */
  /*       to not interfere with bits with HW property "rs".                  */
  MODIFY_REG(ADCx->CR,
 8000ac6:	687b      	ldr	r3, [r7, #4]
 8000ac8:	689b      	ldr	r3, [r3, #8]
 8000aca:	f023 4300 	bic.w	r3, r3, #2147483648	@ 0x80000000
 8000ace:	f023 033f 	bic.w	r3, r3, #63	@ 0x3f
 8000ad2:	f043 0204 	orr.w	r2, r3, #4
 8000ad6:	687b      	ldr	r3, [r7, #4]
 8000ad8:	609a      	str	r2, [r3, #8]
             ADC_CR_BITS_PROPERTY_RS,
             ADC_CR_ADSTART);
}
 8000ada:	bf00      	nop
 8000adc:	370c      	adds	r7, #12
 8000ade:	46bd      	mov	sp, r7
 8000ae0:	f85d 7b04 	ldr.w	r7, [sp], #4
 8000ae4:	4770      	bx	lr

08000ae6 <LL_ADC_REG_IsConversionOngoing>:
  * @rmtoll CR       ADSTART        LL_ADC_REG_IsConversionOngoing
  * @param  ADCx ADC instance
  * @retval 0: no conversion is on going on ADC group regular.
  */
__STATIC_INLINE uint32_t LL_ADC_REG_IsConversionOngoing(const ADC_TypeDef *ADCx)
{
 8000ae6:	b480      	push	{r7}
 8000ae8:	b083      	sub	sp, #12
 8000aea:	af00      	add	r7, sp, #0
 8000aec:	6078      	str	r0, [r7, #4]
  return ((READ_BIT(ADCx->CR, ADC_CR_ADSTART) == (ADC_CR_ADSTART)) ? 1UL : 0UL);
 8000aee:	687b      	ldr	r3, [r7, #4]
 8000af0:	689b      	ldr	r3, [r3, #8]
 8000af2:	f003 0304 	and.w	r3, r3, #4
 8000af6:	2b04      	cmp	r3, #4
 8000af8:	d101      	bne.n	8000afe <LL_ADC_REG_IsConversionOngoing+0x18>
 8000afa:	2301      	movs	r3, #1
 8000afc:	e000      	b.n	8000b00 <LL_ADC_REG_IsConversionOngoing+0x1a>
 8000afe:	2300      	movs	r3, #0
}
 8000b00:	4618      	mov	r0, r3
 8000b02:	370c      	adds	r7, #12
 8000b04:	46bd      	mov	sp, r7
 8000b06:	f85d 7b04 	ldr.w	r7, [sp], #4
 8000b0a:	4770      	bx	lr

08000b0c <LL_ADC_INJ_IsConversionOngoing>:
  * @rmtoll CR       JADSTART       LL_ADC_INJ_IsConversionOngoing
  * @param  ADCx ADC instance
  * @retval 0: no conversion is on going on ADC group injected.
  */
__STATIC_INLINE uint32_t LL_ADC_INJ_IsConversionOngoing(const ADC_TypeDef *ADCx)
{
 8000b0c:	b480      	push	{r7}
 8000b0e:	b083      	sub	sp, #12
 8000b10:	af00      	add	r7, sp, #0
 8000b12:	6078      	str	r0, [r7, #4]
  return ((READ_BIT(ADCx->CR, ADC_CR_JADSTART) == (ADC_CR_JADSTART)) ? 1UL : 0UL);
 8000b14:	687b      	ldr	r3, [r7, #4]
 8000b16:	689b      	ldr	r3, [r3, #8]
 8000b18:	f003 0308 	and.w	r3, r3, #8
 8000b1c:	2b08      	cmp	r3, #8
 8000b1e:	d101      	bne.n	8000b24 <LL_ADC_INJ_IsConversionOngoing+0x18>
 8000b20:	2301      	movs	r3, #1
 8000b22:	e000      	b.n	8000b26 <LL_ADC_INJ_IsConversionOngoing+0x1a>
 8000b24:	2300      	movs	r3, #0
}
 8000b26:	4618      	mov	r0, r3
 8000b28:	370c      	adds	r7, #12
 8000b2a:	46bd      	mov	sp, r7
 8000b2c:	f85d 7b04 	ldr.w	r7, [sp], #4
 8000b30:	4770      	bx	lr
	...

08000b34 <HAL_ADC_Init>:
  *         without  disabling the other ADCs.
  * @param hadc ADC handle
  * @retval HAL status
  */
HAL_StatusTypeDef HAL_ADC_Init(ADC_HandleTypeDef *hadc)
{
 8000b34:	b580      	push	{r7, lr}
 8000b36:	b088      	sub	sp, #32
 8000b38:	af00      	add	r7, sp, #0
 8000b3a:	6078      	str	r0, [r7, #4]
  HAL_StatusTypeDef tmp_hal_status = HAL_OK;
 8000b3c:	2300      	movs	r3, #0
 8000b3e:	77fb      	strb	r3, [r7, #31]
  uint32_t tmp_cfgr;
  uint32_t tmp_adc_is_conversion_on_going_regular;
  uint32_t tmp_adc_is_conversion_on_going_injected;
  __IO uint32_t wait_loop_index = 0UL;
 8000b40:	2300      	movs	r3, #0
 8000b42:	60fb      	str	r3, [r7, #12]

  /* Check ADC handle */
  if (hadc == NULL)
 8000b44:	687b      	ldr	r3, [r7, #4]
 8000b46:	2b00      	cmp	r3, #0
 8000b48:	d101      	bne.n	8000b4e <HAL_ADC_Init+0x1a>
  {
    return HAL_ERROR;
 8000b4a:	2301      	movs	r3, #1
 8000b4c:	e129      	b.n	8000da2 <HAL_ADC_Init+0x26e>
  assert_param(IS_ADC_EOC_SELECTION(hadc->Init.EOCSelection));
  assert_param(IS_ADC_OVERRUN(hadc->Init.Overrun));
  assert_param(IS_FUNCTIONAL_STATE(hadc->Init.LowPowerAutoWait));
  assert_param(IS_FUNCTIONAL_STATE(hadc->Init.OversamplingMode));

  if (hadc->Init.ScanConvMode != ADC_SCAN_DISABLE)
 8000b4e:	687b      	ldr	r3, [r7, #4]
 8000b50:	691b      	ldr	r3, [r3, #16]
 8000b52:	2b00      	cmp	r3, #0
  /* DISCEN and CONT bits cannot be set at the same time */
  assert_param(!((hadc->Init.DiscontinuousConvMode == ENABLE) && (hadc->Init.ContinuousConvMode == ENABLE)));

  /* Actions performed only if ADC is coming from state reset:                */
  /* - Initialization of ADC MSP                                              */
  if (hadc->State == HAL_ADC_STATE_RESET)
 8000b54:	687b      	ldr	r3, [r7, #4]
 8000b56:	6d9b      	ldr	r3, [r3, #88]	@ 0x58
 8000b58:	2b00      	cmp	r3, #0
 8000b5a:	d109      	bne.n	8000b70 <HAL_ADC_Init+0x3c>

    /* Init the low level hardware */
    hadc->MspInitCallback(hadc);
#else
    /* Init the low level hardware */
    HAL_ADC_MspInit(hadc);
 8000b5c:	6878      	ldr	r0, [r7, #4]
 8000b5e:	f7ff fce3 	bl	8000528 <HAL_ADC_MspInit>
#endif /* USE_HAL_ADC_REGISTER_CALLBACKS */

    /* Set ADC error code to none */
    ADC_CLEAR_ERRORCODE(hadc);
 8000b62:	687b      	ldr	r3, [r7, #4]
 8000b64:	2200      	movs	r2, #0
 8000b66:	65da      	str	r2, [r3, #92]	@ 0x5c

    /* Initialize Lock */
    hadc->Lock = HAL_UNLOCKED;
 8000b68:	687b      	ldr	r3, [r7, #4]
 8000b6a:	2200      	movs	r2, #0
 8000b6c:	f883 2054 	strb.w	r2, [r3, #84]	@ 0x54
  }

  /* - Exit from deep-power-down mode and ADC voltage regulator enable        */
  if (LL_ADC_IsDeepPowerDownEnabled(hadc->Instance) != 0UL)
 8000b70:	687b      	ldr	r3, [r7, #4]
 8000b72:	681b      	ldr	r3, [r3, #0]
 8000b74:	4618      	mov	r0, r3
 8000b76:	f7ff ff3f 	bl	80009f8 <LL_ADC_IsDeepPowerDownEnabled>
 8000b7a:	4603      	mov	r3, r0
 8000b7c:	2b00      	cmp	r3, #0
 8000b7e:	d004      	beq.n	8000b8a <HAL_ADC_Init+0x56>
  {
    /* Disable ADC deep power down mode */
    LL_ADC_DisableDeepPowerDown(hadc->Instance);
 8000b80:	687b      	ldr	r3, [r7, #4]
 8000b82:	681b      	ldr	r3, [r3, #0]
 8000b84:	4618      	mov	r0, r3
 8000b86:	f7ff ff25 	bl	80009d4 <LL_ADC_DisableDeepPowerDown>
    /* System was in deep power down mode, calibration must
     be relaunched or a previously saved calibration factor
     re-applied once the ADC voltage regulator is enabled */
  }

  if (LL_ADC_IsInternalRegulatorEnabled(hadc->Instance) == 0UL)
 8000b8a:	687b      	ldr	r3, [r7, #4]
 8000b8c:	681b      	ldr	r3, [r3, #0]
 8000b8e:	4618      	mov	r0, r3
 8000b90:	f7ff ff5a 	bl	8000a48 <LL_ADC_IsInternalRegulatorEnabled>
 8000b94:	4603      	mov	r3, r0
 8000b96:	2b00      	cmp	r3, #0
 8000b98:	d115      	bne.n	8000bc6 <HAL_ADC_Init+0x92>
  {
    /* Enable ADC internal voltage regulator */
    LL_ADC_EnableInternalRegulator(hadc->Instance);
 8000b9a:	687b      	ldr	r3, [r7, #4]
 8000b9c:	681b      	ldr	r3, [r3, #0]
 8000b9e:	4618      	mov	r0, r3
 8000ba0:	f7ff ff3e 	bl	8000a20 <LL_ADC_EnableInternalRegulator>

    /* Note: Variable divided by 2 to compensate partially              */
    /*       CPU processing cycles, scaling in us split to not          */
    /*       exceed 32 bits register capacity and handle low frequency. */
    wait_loop_index = ((LL_ADC_DELAY_INTERNAL_REGUL_STAB_US / 10UL) * ((SystemCoreClock / (100000UL * 2UL)) + 1UL));
 8000ba4:	4b81      	ldr	r3, [pc, #516]	@ (8000dac <HAL_ADC_Init+0x278>)
 8000ba6:	681b      	ldr	r3, [r3, #0]
 8000ba8:	099b      	lsrs	r3, r3, #6
 8000baa:	4a81      	ldr	r2, [pc, #516]	@ (8000db0 <HAL_ADC_Init+0x27c>)
 8000bac:	fba2 2303 	umull	r2, r3, r2, r3
 8000bb0:	099b      	lsrs	r3, r3, #6
 8000bb2:	3301      	adds	r3, #1
 8000bb4:	005b      	lsls	r3, r3, #1
 8000bb6:	60fb      	str	r3, [r7, #12]
    while (wait_loop_index != 0UL)
 8000bb8:	e002      	b.n	8000bc0 <HAL_ADC_Init+0x8c>
    {
      wait_loop_index--;
 8000bba:	68fb      	ldr	r3, [r7, #12]
 8000bbc:	3b01      	subs	r3, #1
 8000bbe:	60fb      	str	r3, [r7, #12]
    while (wait_loop_index != 0UL)
 8000bc0:	68fb      	ldr	r3, [r7, #12]
 8000bc2:	2b00      	cmp	r3, #0
 8000bc4:	d1f9      	bne.n	8000bba <HAL_ADC_Init+0x86>
  }

  /* Verification that ADC voltage regulator is correctly enabled, whether    */
  /* or not ADC is coming from state reset (if any potential problem of       */
  /* clocking, voltage regulator would not be enabled).                       */
  if (LL_ADC_IsInternalRegulatorEnabled(hadc->Instance) == 0UL)
 8000bc6:	687b      	ldr	r3, [r7, #4]
 8000bc8:	681b      	ldr	r3, [r3, #0]
 8000bca:	4618      	mov	r0, r3
 8000bcc:	f7ff ff3c 	bl	8000a48 <LL_ADC_IsInternalRegulatorEnabled>
 8000bd0:	4603      	mov	r3, r0
 8000bd2:	2b00      	cmp	r3, #0
 8000bd4:	d10d      	bne.n	8000bf2 <HAL_ADC_Init+0xbe>
  {
    /* Update ADC state machine to error */
    SET_BIT(hadc->State, HAL_ADC_STATE_ERROR_INTERNAL);
 8000bd6:	687b      	ldr	r3, [r7, #4]
 8000bd8:	6d9b      	ldr	r3, [r3, #88]	@ 0x58
 8000bda:	f043 0210 	orr.w	r2, r3, #16
 8000bde:	687b      	ldr	r3, [r7, #4]
 8000be0:	659a      	str	r2, [r3, #88]	@ 0x58

    /* Set ADC error code to ADC peripheral internal error */
    SET_BIT(hadc->ErrorCode, HAL_ADC_ERROR_INTERNAL);
 8000be2:	687b      	ldr	r3, [r7, #4]
 8000be4:	6ddb      	ldr	r3, [r3, #92]	@ 0x5c
 8000be6:	f043 0201 	orr.w	r2, r3, #1
 8000bea:	687b      	ldr	r3, [r7, #4]
 8000bec:	65da      	str	r2, [r3, #92]	@ 0x5c

    tmp_hal_status = HAL_ERROR;
 8000bee:	2301      	movs	r3, #1
 8000bf0:	77fb      	strb	r3, [r7, #31]

  /* Configuration of ADC parameters if previous preliminary actions are      */
  /* correctly completed and if there is no conversion on going on regular    */
  /* group (ADC may already be enabled at this point if HAL_ADC_Init() is     */
  /* called to update a parameter on the fly).                                */
  tmp_adc_is_conversion_on_going_regular = LL_ADC_REG_IsConversionOngoing(hadc->Instance);
 8000bf2:	687b      	ldr	r3, [r7, #4]
 8000bf4:	681b      	ldr	r3, [r3, #0]
 8000bf6:	4618      	mov	r0, r3
 8000bf8:	f7ff ff75 	bl	8000ae6 <LL_ADC_REG_IsConversionOngoing>
 8000bfc:	6178      	str	r0, [r7, #20]

  if (((hadc->State & HAL_ADC_STATE_ERROR_INTERNAL) == 0UL)
 8000bfe:	687b      	ldr	r3, [r7, #4]
 8000c00:	6d9b      	ldr	r3, [r3, #88]	@ 0x58
 8000c02:	f003 0310 	and.w	r3, r3, #16
 8000c06:	2b00      	cmp	r3, #0
 8000c08:	f040 80c2 	bne.w	8000d90 <HAL_ADC_Init+0x25c>
      && (tmp_adc_is_conversion_on_going_regular == 0UL)
 8000c0c:	697b      	ldr	r3, [r7, #20]
 8000c0e:	2b00      	cmp	r3, #0
 8000c10:	f040 80be 	bne.w	8000d90 <HAL_ADC_Init+0x25c>
     )
  {
    /* Set ADC state */
    ADC_STATE_CLR_SET(hadc->State,
 8000c14:	687b      	ldr	r3, [r7, #4]
 8000c16:	6d9b      	ldr	r3, [r3, #88]	@ 0x58
 8000c18:	f423 7381 	bic.w	r3, r3, #258	@ 0x102
 8000c1c:	f043 0202 	orr.w	r2, r3, #2
 8000c20:	687b      	ldr	r3, [r7, #4]
 8000c22:	659a      	str	r2, [r3, #88]	@ 0x58
    /* Configuration of common ADC parameters                                 */

    /* Parameters update conditioned to ADC state:                            */
    /* Parameters that can be updated only when ADC is disabled:              */
    /*  - clock configuration                                                 */
    if (LL_ADC_IsEnabled(hadc->Instance) == 0UL)
 8000c24:	687b      	ldr	r3, [r7, #4]
 8000c26:	681b      	ldr	r3, [r3, #0]
 8000c28:	4618      	mov	r0, r3
 8000c2a:	f7ff ff35 	bl	8000a98 <LL_ADC_IsEnabled>
 8000c2e:	4603      	mov	r3, r0
 8000c30:	2b00      	cmp	r3, #0
 8000c32:	d10b      	bne.n	8000c4c <HAL_ADC_Init+0x118>
    {
      if (__LL_ADC_IS_ENABLED_ALL_COMMON_INSTANCE(__LL_ADC_COMMON_INSTANCE(hadc->Instance)) == 0UL)
 8000c34:	485f      	ldr	r0, [pc, #380]	@ (8000db4 <HAL_ADC_Init+0x280>)
 8000c36:	f7ff ff2f 	bl	8000a98 <LL_ADC_IsEnabled>
 8000c3a:	4603      	mov	r3, r0
 8000c3c:	2b00      	cmp	r3, #0
 8000c3e:	d105      	bne.n	8000c4c <HAL_ADC_Init+0x118>
        /*     parameters: MDMA, DMACFG, DELAY, DUAL (set by API                */
        /*     HAL_ADCEx_MultiModeConfigChannel() )                             */
        /*   - internal measurement paths: Vbat, temperature sensor, Vref       */
        /*     (set into HAL_ADC_ConfigChannel() or                             */
        /*     HAL_ADCEx_InjectedConfigChannel() )                              */
        LL_ADC_SetCommonClock(__LL_ADC_COMMON_INSTANCE(hadc->Instance), hadc->Init.ClockPrescaler);
 8000c40:	687b      	ldr	r3, [r7, #4]
 8000c42:	685b      	ldr	r3, [r3, #4]
 8000c44:	4619      	mov	r1, r3
 8000c46:	485c      	ldr	r0, [pc, #368]	@ (8000db8 <HAL_ADC_Init+0x284>)
 8000c48:	f7ff fd9a 	bl	8000780 <LL_ADC_SetCommonClock>
    /*  - external trigger polarity                Init.ExternalTrigConvEdge  */
    /*  - continuous conversion mode               Init.ContinuousConvMode    */
    /*  - overrun                                  Init.Overrun               */
    /*  - discontinuous mode                       Init.DiscontinuousConvMode */
    /*  - discontinuous mode channel count         Init.NbrOfDiscConversion   */
    tmp_cfgr  = (ADC_CFGR_CONTINUOUS((uint32_t)hadc->Init.ContinuousConvMode)           |
 8000c4c:	687b      	ldr	r3, [r7, #4]
 8000c4e:	7e5b      	ldrb	r3, [r3, #25]
 8000c50:	035a      	lsls	r2, r3, #13
                 hadc->Init.Overrun                                                     |
 8000c52:	687b      	ldr	r3, [r7, #4]
 8000c54:	6b5b      	ldr	r3, [r3, #52]	@ 0x34
    tmp_cfgr  = (ADC_CFGR_CONTINUOUS((uint32_t)hadc->Init.ContinuousConvMode)           |
 8000c56:	431a      	orrs	r2, r3
                 hadc->Init.DataAlign                                                   |
 8000c58:	687b      	ldr	r3, [r7, #4]
 8000c5a:	68db      	ldr	r3, [r3, #12]
                 hadc->Init.Overrun                                                     |
 8000c5c:	431a      	orrs	r2, r3
                 hadc->Init.Resolution                                                  |
 8000c5e:	687b      	ldr	r3, [r7, #4]
 8000c60:	689b      	ldr	r3, [r3, #8]
                 hadc->Init.DataAlign                                                   |
 8000c62:	431a      	orrs	r2, r3
                 ADC_CFGR_REG_DISCONTINUOUS((uint32_t)hadc->Init.DiscontinuousConvMode));
 8000c64:	687b      	ldr	r3, [r7, #4]
 8000c66:	f893 3020 	ldrb.w	r3, [r3, #32]
 8000c6a:	041b      	lsls	r3, r3, #16
    tmp_cfgr  = (ADC_CFGR_CONTINUOUS((uint32_t)hadc->Init.ContinuousConvMode)           |
 8000c6c:	4313      	orrs	r3, r2
 8000c6e:	61bb      	str	r3, [r7, #24]

    if (hadc->Init.DiscontinuousConvMode == ENABLE)
 8000c70:	687b      	ldr	r3, [r7, #4]
 8000c72:	f893 3020 	ldrb.w	r3, [r3, #32]
 8000c76:	2b01      	cmp	r3, #1
 8000c78:	d106      	bne.n	8000c88 <HAL_ADC_Init+0x154>
    {
      tmp_cfgr |= ADC_CFGR_DISCONTINUOUS_NUM(hadc->Init.NbrOfDiscConversion);
 8000c7a:	687b      	ldr	r3, [r7, #4]
 8000c7c:	6a5b      	ldr	r3, [r3, #36]	@ 0x24
 8000c7e:	3b01      	subs	r3, #1
 8000c80:	045b      	lsls	r3, r3, #17
 8000c82:	69ba      	ldr	r2, [r7, #24]
 8000c84:	4313      	orrs	r3, r2
 8000c86:	61bb      	str	r3, [r7, #24]
    /* Enable external trigger if trigger selection is different of software  */
    /* start.                                                                 */
    /* Note: This configuration keeps the hardware feature of parameter       */
    /*       ExternalTrigConvEdge "trigger edge none" equivalent to           */
    /*       software start.                                                  */
    if (hadc->Init.ExternalTrigConv != ADC_SOFTWARE_START)
 8000c88:	687b      	ldr	r3, [r7, #4]
 8000c8a:	6a9b      	ldr	r3, [r3, #40]	@ 0x28
 8000c8c:	2b00      	cmp	r3, #0
 8000c8e:	d009      	beq.n	8000ca4 <HAL_ADC_Init+0x170>
    {
      tmp_cfgr |= ((hadc->Init.ExternalTrigConv & ADC_CFGR_EXTSEL)
 8000c90:	687b      	ldr	r3, [r7, #4]
 8000c92:	6a9b      	ldr	r3, [r3, #40]	@ 0x28
 8000c94:	f403 7270 	and.w	r2, r3, #960	@ 0x3c0
                   | hadc->Init.ExternalTrigConvEdge
 8000c98:	687b      	ldr	r3, [r7, #4]
 8000c9a:	6adb      	ldr	r3, [r3, #44]	@ 0x2c
 8000c9c:	4313      	orrs	r3, r2
      tmp_cfgr |= ((hadc->Init.ExternalTrigConv & ADC_CFGR_EXTSEL)
 8000c9e:	69ba      	ldr	r2, [r7, #24]
 8000ca0:	4313      	orrs	r3, r2
 8000ca2:	61bb      	str	r3, [r7, #24]
                  );
    }

    /* Update Configuration Register CFGR */
    MODIFY_REG(hadc->Instance->CFGR, ADC_CFGR_FIELDS_1, tmp_cfgr);
 8000ca4:	687b      	ldr	r3, [r7, #4]
 8000ca6:	681b      	ldr	r3, [r3, #0]
 8000ca8:	68da      	ldr	r2, [r3, #12]
 8000caa:	4b44      	ldr	r3, [pc, #272]	@ (8000dbc <HAL_ADC_Init+0x288>)
 8000cac:	4013      	ands	r3, r2
 8000cae:	687a      	ldr	r2, [r7, #4]
 8000cb0:	6812      	ldr	r2, [r2, #0]
 8000cb2:	69b9      	ldr	r1, [r7, #24]
 8000cb4:	430b      	orrs	r3, r1
 8000cb6:	60d3      	str	r3, [r2, #12]
    /* Parameters that can be updated when ADC is disabled or enabled without */
    /* conversion on going on regular and injected groups:                    */
    /*  - DMA continuous request          Init.DMAContinuousRequests          */
    /*  - LowPowerAutoWait feature        Init.LowPowerAutoWait               */
    /*  - Oversampling parameters         Init.Oversampling                   */
    tmp_adc_is_conversion_on_going_injected = LL_ADC_INJ_IsConversionOngoing(hadc->Instance);
 8000cb8:	687b      	ldr	r3, [r7, #4]
 8000cba:	681b      	ldr	r3, [r3, #0]
 8000cbc:	4618      	mov	r0, r3
 8000cbe:	f7ff ff25 	bl	8000b0c <LL_ADC_INJ_IsConversionOngoing>
 8000cc2:	6138      	str	r0, [r7, #16]
    if ((tmp_adc_is_conversion_on_going_regular == 0UL)
 8000cc4:	697b      	ldr	r3, [r7, #20]
 8000cc6:	2b00      	cmp	r3, #0
 8000cc8:	d140      	bne.n	8000d4c <HAL_ADC_Init+0x218>
        && (tmp_adc_is_conversion_on_going_injected == 0UL)
 8000cca:	693b      	ldr	r3, [r7, #16]
 8000ccc:	2b00      	cmp	r3, #0
 8000cce:	d13d      	bne.n	8000d4c <HAL_ADC_Init+0x218>
       )
    {
      tmp_cfgr = (ADC_CFGR_DFSDM(hadc)                                            |
 8000cd0:	687b      	ldr	r3, [r7, #4]
 8000cd2:	6cda      	ldr	r2, [r3, #76]	@ 0x4c
                   ADC_CFGR_AUTOWAIT((uint32_t)hadc->Init.LowPowerAutoWait)        |
 8000cd4:	687b      	ldr	r3, [r7, #4]
 8000cd6:	7e1b      	ldrb	r3, [r3, #24]
 8000cd8:	039b      	lsls	r3, r3, #14
      tmp_cfgr = (ADC_CFGR_DFSDM(hadc)                                            |
 8000cda:	431a      	orrs	r2, r3
                   ADC_CFGR_DMACONTREQ((uint32_t)hadc->Init.DMAContinuousRequests));
 8000cdc:	687b      	ldr	r3, [r7, #4]
 8000cde:	f893 3030 	ldrb.w	r3, [r3, #48]	@ 0x30
 8000ce2:	005b      	lsls	r3, r3, #1
      tmp_cfgr = (ADC_CFGR_DFSDM(hadc)                                            |
 8000ce4:	4313      	orrs	r3, r2
 8000ce6:	61bb      	str	r3, [r7, #24]

      MODIFY_REG(hadc->Instance->CFGR, ADC_CFGR_FIELDS_2, tmp_cfgr);
 8000ce8:	687b      	ldr	r3, [r7, #4]
 8000cea:	681b      	ldr	r3, [r3, #0]
 8000cec:	68db      	ldr	r3, [r3, #12]
 8000cee:	f423 4380 	bic.w	r3, r3, #16384	@ 0x4000
 8000cf2:	f023 0306 	bic.w	r3, r3, #6
 8000cf6:	687a      	ldr	r2, [r7, #4]
 8000cf8:	6812      	ldr	r2, [r2, #0]
 8000cfa:	69b9      	ldr	r1, [r7, #24]
 8000cfc:	430b      	orrs	r3, r1
 8000cfe:	60d3      	str	r3, [r2, #12]

      if (hadc->Init.OversamplingMode == ENABLE)
 8000d00:	687b      	ldr	r3, [r7, #4]
 8000d02:	f893 3038 	ldrb.w	r3, [r3, #56]	@ 0x38
 8000d06:	2b01      	cmp	r3, #1
 8000d08:	d118      	bne.n	8000d3c <HAL_ADC_Init+0x208>
        /* Configuration of Oversampler:                                      */
        /*  - Oversampling Ratio                                              */
        /*  - Right bit shift                                                 */
        /*  - Triggered mode                                                  */
        /*  - Oversampling mode (continued/resumed)                           */
        MODIFY_REG(hadc->Instance->CFGR2,
 8000d0a:	687b      	ldr	r3, [r7, #4]
 8000d0c:	681b      	ldr	r3, [r3, #0]
 8000d0e:	691b      	ldr	r3, [r3, #16]
 8000d10:	f423 63ff 	bic.w	r3, r3, #2040	@ 0x7f8
 8000d14:	f023 0304 	bic.w	r3, r3, #4
 8000d18:	687a      	ldr	r2, [r7, #4]
 8000d1a:	6bd1      	ldr	r1, [r2, #60]	@ 0x3c
 8000d1c:	687a      	ldr	r2, [r7, #4]
 8000d1e:	6c12      	ldr	r2, [r2, #64]	@ 0x40
 8000d20:	4311      	orrs	r1, r2
 8000d22:	687a      	ldr	r2, [r7, #4]
 8000d24:	6c52      	ldr	r2, [r2, #68]	@ 0x44
 8000d26:	4311      	orrs	r1, r2
 8000d28:	687a      	ldr	r2, [r7, #4]
 8000d2a:	6c92      	ldr	r2, [r2, #72]	@ 0x48
 8000d2c:	430a      	orrs	r2, r1
 8000d2e:	431a      	orrs	r2, r3
 8000d30:	687b      	ldr	r3, [r7, #4]
 8000d32:	681b      	ldr	r3, [r3, #0]
 8000d34:	f042 0201 	orr.w	r2, r2, #1
 8000d38:	611a      	str	r2, [r3, #16]
 8000d3a:	e007      	b.n	8000d4c <HAL_ADC_Init+0x218>
                  );
      }
      else
      {
        /* Disable ADC oversampling scope on ADC group regular */
        CLEAR_BIT(hadc->Instance->CFGR2, ADC_CFGR2_ROVSE);
 8000d3c:	687b      	ldr	r3, [r7, #4]
 8000d3e:	681b      	ldr	r3, [r3, #0]
 8000d40:	691a      	ldr	r2, [r3, #16]
 8000d42:	687b      	ldr	r3, [r7, #4]
 8000d44:	681b      	ldr	r3, [r3, #0]
 8000d46:	f022 0201 	bic.w	r2, r2, #1
 8000d4a:	611a      	str	r2, [r3, #16]
    /*   Note: Scan mode is not present by hardware on this device, but       */
    /*   emulated by software for alignment over all STM32 devices.           */
    /* - if scan mode is enabled, regular channels sequence length is set to  */
    /*   parameter "NbrOfConversion".                                         */

    if (hadc->Init.ScanConvMode == ADC_SCAN_ENABLE)
 8000d4c:	687b      	ldr	r3, [r7, #4]
 8000d4e:	691b      	ldr	r3, [r3, #16]
 8000d50:	2b01      	cmp	r3, #1
 8000d52:	d10c      	bne.n	8000d6e <HAL_ADC_Init+0x23a>
    {
      /* Set number of ranks in regular group sequencer */
      MODIFY_REG(hadc->Instance->SQR1, ADC_SQR1_L, (hadc->Init.NbrOfConversion - (uint8_t)1));
 8000d54:	687b      	ldr	r3, [r7, #4]
 8000d56:	681b      	ldr	r3, [r3, #0]
 8000d58:	6b1b      	ldr	r3, [r3, #48]	@ 0x30
 8000d5a:	f023 010f 	bic.w	r1, r3, #15
 8000d5e:	687b      	ldr	r3, [r7, #4]
 8000d60:	69db      	ldr	r3, [r3, #28]
 8000d62:	1e5a      	subs	r2, r3, #1
 8000d64:	687b      	ldr	r3, [r7, #4]
 8000d66:	681b      	ldr	r3, [r3, #0]
 8000d68:	430a      	orrs	r2, r1
 8000d6a:	631a      	str	r2, [r3, #48]	@ 0x30
 8000d6c:	e007      	b.n	8000d7e <HAL_ADC_Init+0x24a>
    }
    else
    {
      CLEAR_BIT(hadc->Instance->SQR1, ADC_SQR1_L);
 8000d6e:	687b      	ldr	r3, [r7, #4]
 8000d70:	681b      	ldr	r3, [r3, #0]
 8000d72:	6b1a      	ldr	r2, [r3, #48]	@ 0x30
 8000d74:	687b      	ldr	r3, [r7, #4]
 8000d76:	681b      	ldr	r3, [r3, #0]
 8000d78:	f022 020f 	bic.w	r2, r2, #15
 8000d7c:	631a      	str	r2, [r3, #48]	@ 0x30
    }

    /* Initialize the ADC state */
    /* Clear HAL_ADC_STATE_BUSY_INTERNAL bit, set HAL_ADC_STATE_READY bit */
    ADC_STATE_CLR_SET(hadc->State, HAL_ADC_STATE_BUSY_INTERNAL, HAL_ADC_STATE_READY);
 8000d7e:	687b      	ldr	r3, [r7, #4]
 8000d80:	6d9b      	ldr	r3, [r3, #88]	@ 0x58
 8000d82:	f023 0303 	bic.w	r3, r3, #3
 8000d86:	f043 0201 	orr.w	r2, r3, #1
 8000d8a:	687b      	ldr	r3, [r7, #4]
 8000d8c:	659a      	str	r2, [r3, #88]	@ 0x58
 8000d8e:	e007      	b.n	8000da0 <HAL_ADC_Init+0x26c>
  }
  else
  {
    /* Update ADC state machine to error */
    SET_BIT(hadc->State, HAL_ADC_STATE_ERROR_INTERNAL);
 8000d90:	687b      	ldr	r3, [r7, #4]
 8000d92:	6d9b      	ldr	r3, [r3, #88]	@ 0x58
 8000d94:	f043 0210 	orr.w	r2, r3, #16
 8000d98:	687b      	ldr	r3, [r7, #4]
 8000d9a:	659a      	str	r2, [r3, #88]	@ 0x58

    tmp_hal_status = HAL_ERROR;
 8000d9c:	2301      	movs	r3, #1
 8000d9e:	77fb      	strb	r3, [r7, #31]
  }

  /* Return function status */
  return tmp_hal_status;
 8000da0:	7ffb      	ldrb	r3, [r7, #31]
}
 8000da2:	4618      	mov	r0, r3
 8000da4:	3720      	adds	r7, #32
 8000da6:	46bd      	mov	sp, r7
 8000da8:	bd80      	pop	{r7, pc}
 8000daa:	bf00      	nop
 8000dac:	20000000 	.word	0x20000000
 8000db0:	053e2d63 	.word	0x053e2d63
 8000db4:	50040000 	.word	0x50040000
 8000db8:	50040300 	.word	0x50040300
 8000dbc:	fff0c007 	.word	0xfff0c007

08000dc0 <HAL_ADC_Start>:
  *           if ADC is master, ADC is enabled and multimode conversion is started.
  * @param hadc ADC handle
  * @retval HAL status
  */
HAL_StatusTypeDef HAL_ADC_Start(ADC_HandleTypeDef *hadc)
{
 8000dc0:	b580      	push	{r7, lr}
 8000dc2:	b084      	sub	sp, #16
 8000dc4:	af00      	add	r7, sp, #0
 8000dc6:	6078      	str	r0, [r7, #4]

  /* Check the parameters */
  assert_param(IS_ADC_ALL_INSTANCE(hadc->Instance));

  /* Perform ADC enable and conversion start if no conversion is on going */
  if (LL_ADC_REG_IsConversionOngoing(hadc->Instance) == 0UL)
 8000dc8:	687b      	ldr	r3, [r7, #4]
 8000dca:	681b      	ldr	r3, [r3, #0]
 8000dcc:	4618      	mov	r0, r3
 8000dce:	f7ff fe8a 	bl	8000ae6 <LL_ADC_REG_IsConversionOngoing>
 8000dd2:	4603      	mov	r3, r0
 8000dd4:	2b00      	cmp	r3, #0
 8000dd6:	d14f      	bne.n	8000e78 <HAL_ADC_Start+0xb8>
  {
    /* Process locked */
    __HAL_LOCK(hadc);
 8000dd8:	687b      	ldr	r3, [r7, #4]
 8000dda:	f893 3054 	ldrb.w	r3, [r3, #84]	@ 0x54
 8000dde:	2b01      	cmp	r3, #1
 8000de0:	d101      	bne.n	8000de6 <HAL_ADC_Start+0x26>
 8000de2:	2302      	movs	r3, #2
 8000de4:	e04b      	b.n	8000e7e <HAL_ADC_Start+0xbe>
 8000de6:	687b      	ldr	r3, [r7, #4]
 8000de8:	2201      	movs	r2, #1
 8000dea:	f883 2054 	strb.w	r2, [r3, #84]	@ 0x54

    /* Enable the ADC peripheral */
    tmp_hal_status = ADC_Enable(hadc);
 8000dee:	6878      	ldr	r0, [r7, #4]
 8000df0:	f000 fce2 	bl	80017b8 <ADC_Enable>
 8000df4:	4603      	mov	r3, r0
 8000df6:	73fb      	strb	r3, [r7, #15]

    /* Start conversion if ADC is effectively enabled */
    if (tmp_hal_status == HAL_OK)
 8000df8:	7bfb      	ldrb	r3, [r7, #15]
 8000dfa:	2b00      	cmp	r3, #0
 8000dfc:	d137      	bne.n	8000e6e <HAL_ADC_Start+0xae>
    {
      /* Set ADC state                                                        */
      /* - Clear state bitfield related to regular group conversion results   */
      /* - Set state bitfield related to regular operation                    */
      ADC_STATE_CLR_SET(hadc->State,
 8000dfe:	687b      	ldr	r3, [r7, #4]
 8000e00:	6d9b      	ldr	r3, [r3, #88]	@ 0x58
 8000e02:	f423 6370 	bic.w	r3, r3, #3840	@ 0xf00
 8000e06:	f023 0301 	bic.w	r3, r3, #1
 8000e0a:	f443 7280 	orr.w	r2, r3, #256	@ 0x100
 8000e0e:	687b      	ldr	r3, [r7, #4]
 8000e10:	659a      	str	r2, [r3, #88]	@ 0x58
      }
#endif /* ADC_MULTIMODE_SUPPORT */

      /* Set ADC error code */
      /* Check if a conversion is on going on ADC group injected */
      if (HAL_IS_BIT_SET(hadc->State, HAL_ADC_STATE_INJ_BUSY))
 8000e12:	687b      	ldr	r3, [r7, #4]
 8000e14:	6d9b      	ldr	r3, [r3, #88]	@ 0x58
 8000e16:	f403 5380 	and.w	r3, r3, #4096	@ 0x1000
 8000e1a:	f5b3 5f80 	cmp.w	r3, #4096	@ 0x1000
 8000e1e:	d106      	bne.n	8000e2e <HAL_ADC_Start+0x6e>
      {
        /* Reset ADC error code fields related to regular conversions only */
        CLEAR_BIT(hadc->ErrorCode, (HAL_ADC_ERROR_OVR | HAL_ADC_ERROR_DMA));
 8000e20:	687b      	ldr	r3, [r7, #4]
 8000e22:	6ddb      	ldr	r3, [r3, #92]	@ 0x5c
 8000e24:	f023 0206 	bic.w	r2, r3, #6
 8000e28:	687b      	ldr	r3, [r7, #4]
 8000e2a:	65da      	str	r2, [r3, #92]	@ 0x5c
 8000e2c:	e002      	b.n	8000e34 <HAL_ADC_Start+0x74>
      }
      else
      {
        /* Reset all ADC error code fields */
        ADC_CLEAR_ERRORCODE(hadc);
 8000e2e:	687b      	ldr	r3, [r7, #4]
 8000e30:	2200      	movs	r2, #0
 8000e32:	65da      	str	r2, [r3, #92]	@ 0x5c
      }

      /* Clear ADC group regular conversion flag and overrun flag               */
      /* (To ensure of no unknown state from potential previous ADC operations) */
      __HAL_ADC_CLEAR_FLAG(hadc, (ADC_FLAG_EOC | ADC_FLAG_EOS | ADC_FLAG_OVR));
 8000e34:	687b      	ldr	r3, [r7, #4]
 8000e36:	681b      	ldr	r3, [r3, #0]
 8000e38:	221c      	movs	r2, #28
 8000e3a:	601a      	str	r2, [r3, #0]

      /* Process unlocked */
      /* Unlock before starting ADC conversions: in case of potential         */
      /* interruption, to let the process to ADC IRQ Handler.                 */
      __HAL_UNLOCK(hadc);
 8000e3c:	687b      	ldr	r3, [r7, #4]
 8000e3e:	2200      	movs	r2, #0
 8000e40:	f883 2054 	strb.w	r2, [r3, #84]	@ 0x54
          ADC_STATE_CLR_SET(hadc->State, HAL_ADC_STATE_INJ_EOC, HAL_ADC_STATE_INJ_BUSY);
        }

      }
#else
      if (READ_BIT(hadc->Instance->CFGR, ADC_CFGR_JAUTO) != 0UL)
 8000e44:	687b      	ldr	r3, [r7, #4]
 8000e46:	681b      	ldr	r3, [r3, #0]
 8000e48:	68db      	ldr	r3, [r3, #12]
 8000e4a:	f003 7300 	and.w	r3, r3, #33554432	@ 0x2000000
 8000e4e:	2b00      	cmp	r3, #0
 8000e50:	d007      	beq.n	8000e62 <HAL_ADC_Start+0xa2>
      {
        ADC_STATE_CLR_SET(hadc->State, HAL_ADC_STATE_INJ_EOC, HAL_ADC_STATE_INJ_BUSY);
 8000e52:	687b      	ldr	r3, [r7, #4]
 8000e54:	6d9b      	ldr	r3, [r3, #88]	@ 0x58
 8000e56:	f423 5340 	bic.w	r3, r3, #12288	@ 0x3000
 8000e5a:	f443 5280 	orr.w	r2, r3, #4096	@ 0x1000
 8000e5e:	687b      	ldr	r3, [r7, #4]
 8000e60:	659a      	str	r2, [r3, #88]	@ 0x58
      }

      /* Start ADC group regular conversion */
      LL_ADC_REG_StartConversion(hadc->Instance);
 8000e62:	687b      	ldr	r3, [r7, #4]
 8000e64:	681b      	ldr	r3, [r3, #0]
 8000e66:	4618      	mov	r0, r3
 8000e68:	f7ff fe29 	bl	8000abe <LL_ADC_REG_StartConversion>
 8000e6c:	e006      	b.n	8000e7c <HAL_ADC_Start+0xbc>
#endif /* ADC_MULTIMODE_SUPPORT */
    }
    else
    {
      /* Process unlocked */
      __HAL_UNLOCK(hadc);
 8000e6e:	687b      	ldr	r3, [r7, #4]
 8000e70:	2200      	movs	r2, #0
 8000e72:	f883 2054 	strb.w	r2, [r3, #84]	@ 0x54
 8000e76:	e001      	b.n	8000e7c <HAL_ADC_Start+0xbc>
    }
  }
  else
  {
    tmp_hal_status = HAL_BUSY;
 8000e78:	2302      	movs	r3, #2
 8000e7a:	73fb      	strb	r3, [r7, #15]
  }

  /* Return function status */
  return tmp_hal_status;
 8000e7c:	7bfb      	ldrb	r3, [r7, #15]
}
 8000e7e:	4618      	mov	r0, r3
 8000e80:	3710      	adds	r7, #16
 8000e82:	46bd      	mov	sp, r7
 8000e84:	bd80      	pop	{r7, pc}

08000e86 <HAL_ADC_PollForConversion>:
  * @param hadc ADC handle
  * @param Timeout Timeout value in millisecond.
  * @retval HAL status
  */
HAL_StatusTypeDef HAL_ADC_PollForConversion(ADC_HandleTypeDef *hadc, uint32_t Timeout)
{
 8000e86:	b580      	push	{r7, lr}
 8000e88:	b086      	sub	sp, #24
 8000e8a:	af00      	add	r7, sp, #0
 8000e8c:	6078      	str	r0, [r7, #4]
 8000e8e:	6039      	str	r1, [r7, #0]

  /* Check the parameters */
  assert_param(IS_ADC_ALL_INSTANCE(hadc->Instance));

  /* If end of conversion selected to end of sequence conversions */
  if (hadc->Init.EOCSelection == ADC_EOC_SEQ_CONV)
 8000e90:	687b      	ldr	r3, [r7, #4]
 8000e92:	695b      	ldr	r3, [r3, #20]
 8000e94:	2b08      	cmp	r3, #8
 8000e96:	d102      	bne.n	8000e9e <HAL_ADC_PollForConversion+0x18>
  {
    tmp_Flag_End = ADC_FLAG_EOS;
 8000e98:	2308      	movs	r3, #8
 8000e9a:	617b      	str	r3, [r7, #20]
 8000e9c:	e010      	b.n	8000ec0 <HAL_ADC_PollForConversion+0x3a>
        tmp_Flag_End = (ADC_FLAG_EOC);
      }
    }
#else
    /* Check ADC DMA mode */
    if (READ_BIT(hadc->Instance->CFGR, ADC_CFGR_DMAEN) != 0UL)
 8000e9e:	687b      	ldr	r3, [r7, #4]
 8000ea0:	681b      	ldr	r3, [r3, #0]
 8000ea2:	68db      	ldr	r3, [r3, #12]
 8000ea4:	f003 0301 	and.w	r3, r3, #1
 8000ea8:	2b00      	cmp	r3, #0
 8000eaa:	d007      	beq.n	8000ebc <HAL_ADC_PollForConversion+0x36>
    {
      SET_BIT(hadc->State, HAL_ADC_STATE_ERROR_CONFIG);
 8000eac:	687b      	ldr	r3, [r7, #4]
 8000eae:	6d9b      	ldr	r3, [r3, #88]	@ 0x58
 8000eb0:	f043 0220 	orr.w	r2, r3, #32
 8000eb4:	687b      	ldr	r3, [r7, #4]
 8000eb6:	659a      	str	r2, [r3, #88]	@ 0x58
      return HAL_ERROR;
 8000eb8:	2301      	movs	r3, #1
 8000eba:	e06f      	b.n	8000f9c <HAL_ADC_PollForConversion+0x116>
    }
    else
    {
      tmp_Flag_End = (ADC_FLAG_EOC);
 8000ebc:	2304      	movs	r3, #4
 8000ebe:	617b      	str	r3, [r7, #20]
    }
#endif /* ADC_MULTIMODE_SUPPORT */
  }

  /* Get tick count */
  tickstart = HAL_GetTick();
 8000ec0:	f7ff fc52 	bl	8000768 <HAL_GetTick>
 8000ec4:	6138      	str	r0, [r7, #16]

  /* Wait until End of unitary conversion or sequence conversions flag is raised */
  while ((hadc->Instance->ISR & tmp_Flag_End) == 0UL)
 8000ec6:	e021      	b.n	8000f0c <HAL_ADC_PollForConversion+0x86>
  {
    /* Check if timeout is disabled (set to infinite wait) */
    if (Timeout != HAL_MAX_DELAY)
 8000ec8:	683b      	ldr	r3, [r7, #0]
 8000eca:	f1b3 3fff 	cmp.w	r3, #4294967295
 8000ece:	d01d      	beq.n	8000f0c <HAL_ADC_PollForConversion+0x86>
    {
      if (((HAL_GetTick() - tickstart) > Timeout) || (Timeout == 0UL))
 8000ed0:	f7ff fc4a 	bl	8000768 <HAL_GetTick>
 8000ed4:	4602      	mov	r2, r0
 8000ed6:	693b      	ldr	r3, [r7, #16]
 8000ed8:	1ad3      	subs	r3, r2, r3
 8000eda:	683a      	ldr	r2, [r7, #0]
 8000edc:	429a      	cmp	r2, r3
 8000ede:	d302      	bcc.n	8000ee6 <HAL_ADC_PollForConversion+0x60>
 8000ee0:	683b      	ldr	r3, [r7, #0]
 8000ee2:	2b00      	cmp	r3, #0
 8000ee4:	d112      	bne.n	8000f0c <HAL_ADC_PollForConversion+0x86>
      {
        /* New check to avoid false timeout detection in case of preemption */
        if ((hadc->Instance->ISR & tmp_Flag_End) == 0UL)
 8000ee6:	687b      	ldr	r3, [r7, #4]
 8000ee8:	681b      	ldr	r3, [r3, #0]
 8000eea:	681a      	ldr	r2, [r3, #0]
 8000eec:	697b      	ldr	r3, [r7, #20]
 8000eee:	4013      	ands	r3, r2
 8000ef0:	2b00      	cmp	r3, #0
 8000ef2:	d10b      	bne.n	8000f0c <HAL_ADC_PollForConversion+0x86>
        {
          /* Update ADC state machine to timeout */
          SET_BIT(hadc->State, HAL_ADC_STATE_TIMEOUT);
 8000ef4:	687b      	ldr	r3, [r7, #4]
 8000ef6:	6d9b      	ldr	r3, [r3, #88]	@ 0x58
 8000ef8:	f043 0204 	orr.w	r2, r3, #4
 8000efc:	687b      	ldr	r3, [r7, #4]
 8000efe:	659a      	str	r2, [r3, #88]	@ 0x58

          /* Process unlocked */
          __HAL_UNLOCK(hadc);
 8000f00:	687b      	ldr	r3, [r7, #4]
 8000f02:	2200      	movs	r2, #0
 8000f04:	f883 2054 	strb.w	r2, [r3, #84]	@ 0x54

          return HAL_TIMEOUT;
 8000f08:	2303      	movs	r3, #3
 8000f0a:	e047      	b.n	8000f9c <HAL_ADC_PollForConversion+0x116>
  while ((hadc->Instance->ISR & tmp_Flag_End) == 0UL)
 8000f0c:	687b      	ldr	r3, [r7, #4]
 8000f0e:	681b      	ldr	r3, [r3, #0]
 8000f10:	681a      	ldr	r2, [r3, #0]
 8000f12:	697b      	ldr	r3, [r7, #20]
 8000f14:	4013      	ands	r3, r2
 8000f16:	2b00      	cmp	r3, #0
 8000f18:	d0d6      	beq.n	8000ec8 <HAL_ADC_PollForConversion+0x42>
      }
    }
  }

  /* Update ADC state machine */
  SET_BIT(hadc->State, HAL_ADC_STATE_REG_EOC);
 8000f1a:	687b      	ldr	r3, [r7, #4]
 8000f1c:	6d9b      	ldr	r3, [r3, #88]	@ 0x58
 8000f1e:	f443 7200 	orr.w	r2, r3, #512	@ 0x200
 8000f22:	687b      	ldr	r3, [r7, #4]
 8000f24:	659a      	str	r2, [r3, #88]	@ 0x58

  /* Determine whether any further conversion upcoming on group regular       */
  /* by external trigger, continuous mode or scan sequence on going.          */
  if ((LL_ADC_REG_IsTriggerSourceSWStart(hadc->Instance) != 0UL)
 8000f26:	687b      	ldr	r3, [r7, #4]
 8000f28:	681b      	ldr	r3, [r3, #0]
 8000f2a:	4618      	mov	r0, r3
 8000f2c:	f7ff fcc4 	bl	80008b8 <LL_ADC_REG_IsTriggerSourceSWStart>
 8000f30:	4603      	mov	r3, r0
 8000f32:	2b00      	cmp	r3, #0
 8000f34:	d01c      	beq.n	8000f70 <HAL_ADC_PollForConversion+0xea>
      && (hadc->Init.ContinuousConvMode == DISABLE)
 8000f36:	687b      	ldr	r3, [r7, #4]
 8000f38:	7e5b      	ldrb	r3, [r3, #25]
 8000f3a:	2b00      	cmp	r3, #0
 8000f3c:	d118      	bne.n	8000f70 <HAL_ADC_PollForConversion+0xea>
     )
  {
    /* Check whether end of sequence is reached */
    if (__HAL_ADC_GET_FLAG(hadc, ADC_FLAG_EOS))
 8000f3e:	687b      	ldr	r3, [r7, #4]
 8000f40:	681b      	ldr	r3, [r3, #0]
 8000f42:	681b      	ldr	r3, [r3, #0]
 8000f44:	f003 0308 	and.w	r3, r3, #8
 8000f48:	2b08      	cmp	r3, #8
 8000f4a:	d111      	bne.n	8000f70 <HAL_ADC_PollForConversion+0xea>
    {
      /* Set ADC state */
      CLEAR_BIT(hadc->State, HAL_ADC_STATE_REG_BUSY);
 8000f4c:	687b      	ldr	r3, [r7, #4]
 8000f4e:	6d9b      	ldr	r3, [r3, #88]	@ 0x58
 8000f50:	f423 7280 	bic.w	r2, r3, #256	@ 0x100
 8000f54:	687b      	ldr	r3, [r7, #4]
 8000f56:	659a      	str	r2, [r3, #88]	@ 0x58

      if ((hadc->State & HAL_ADC_STATE_INJ_BUSY) == 0UL)
 8000f58:	687b      	ldr	r3, [r7, #4]
 8000f5a:	6d9b      	ldr	r3, [r3, #88]	@ 0x58
 8000f5c:	f403 5380 	and.w	r3, r3, #4096	@ 0x1000
 8000f60:	2b00      	cmp	r3, #0
 8000f62:	d105      	bne.n	8000f70 <HAL_ADC_PollForConversion+0xea>
      {
        SET_BIT(hadc->State, HAL_ADC_STATE_READY);
 8000f64:	687b      	ldr	r3, [r7, #4]
 8000f66:	6d9b      	ldr	r3, [r3, #88]	@ 0x58
 8000f68:	f043 0201 	orr.w	r2, r3, #1
 8000f6c:	687b      	ldr	r3, [r7, #4]
 8000f6e:	659a      	str	r2, [r3, #88]	@ 0x58
    tmpADC_Master = __LL_ADC_MULTI_INSTANCE_MASTER(hadc->Instance);
    tmp_cfgr = READ_REG(tmpADC_Master->CFGR);
  }
#else
  /* Retrieve handle ADC CFGR register */
  tmp_cfgr = READ_REG(hadc->Instance->CFGR);
 8000f70:	687b      	ldr	r3, [r7, #4]
 8000f72:	681b      	ldr	r3, [r3, #0]
 8000f74:	68db      	ldr	r3, [r3, #12]
 8000f76:	60fb      	str	r3, [r7, #12]
#endif /* ADC_MULTIMODE_SUPPORT */

  /* Clear polled flag */
  if (tmp_Flag_End == ADC_FLAG_EOS)
 8000f78:	697b      	ldr	r3, [r7, #20]
 8000f7a:	2b08      	cmp	r3, #8
 8000f7c:	d104      	bne.n	8000f88 <HAL_ADC_PollForConversion+0x102>
  {
    __HAL_ADC_CLEAR_FLAG(hadc, ADC_FLAG_EOS);
 8000f7e:	687b      	ldr	r3, [r7, #4]
 8000f80:	681b      	ldr	r3, [r3, #0]
 8000f82:	2208      	movs	r2, #8
 8000f84:	601a      	str	r2, [r3, #0]
 8000f86:	e008      	b.n	8000f9a <HAL_ADC_PollForConversion+0x114>
  else
  {
    /* Clear end of conversion EOC flag of regular group if low power feature */
    /* "LowPowerAutoWait " is disabled, to not interfere with this feature    */
    /* until data register is read using function HAL_ADC_GetValue().         */
    if (READ_BIT(tmp_cfgr, ADC_CFGR_AUTDLY) == 0UL)
 8000f88:	68fb      	ldr	r3, [r7, #12]
 8000f8a:	f403 4380 	and.w	r3, r3, #16384	@ 0x4000
 8000f8e:	2b00      	cmp	r3, #0
 8000f90:	d103      	bne.n	8000f9a <HAL_ADC_PollForConversion+0x114>
    {
      __HAL_ADC_CLEAR_FLAG(hadc, (ADC_FLAG_EOC | ADC_FLAG_EOS));
 8000f92:	687b      	ldr	r3, [r7, #4]
 8000f94:	681b      	ldr	r3, [r3, #0]
 8000f96:	220c      	movs	r2, #12
 8000f98:	601a      	str	r2, [r3, #0]
    }
  }

  /* Return function status */
  return HAL_OK;
 8000f9a:	2300      	movs	r3, #0
}
 8000f9c:	4618      	mov	r0, r3
 8000f9e:	3718      	adds	r7, #24
 8000fa0:	46bd      	mov	sp, r7
 8000fa2:	bd80      	pop	{r7, pc}

08000fa4 <HAL_ADC_GetValue>:
  *         or @ref __HAL_ADC_CLEAR_FLAG(&hadc, ADC_FLAG_EOS).
  * @param hadc ADC handle
  * @retval ADC group regular conversion data
  */
uint32_t HAL_ADC_GetValue(const ADC_HandleTypeDef *hadc)
{
 8000fa4:	b480      	push	{r7}
 8000fa6:	b083      	sub	sp, #12
 8000fa8:	af00      	add	r7, sp, #0
 8000faa:	6078      	str	r0, [r7, #4]

  /* Note: EOC flag is not cleared here by software because automatically     */
  /*       cleared by hardware when reading register DR.                      */

  /* Return ADC converted value */
  return hadc->Instance->DR;
 8000fac:	687b      	ldr	r3, [r7, #4]
 8000fae:	681b      	ldr	r3, [r3, #0]
 8000fb0:	6c1b      	ldr	r3, [r3, #64]	@ 0x40
}
 8000fb2:	4618      	mov	r0, r3
 8000fb4:	370c      	adds	r7, #12
 8000fb6:	46bd      	mov	sp, r7
 8000fb8:	f85d 7b04 	ldr.w	r7, [sp], #4
 8000fbc:	4770      	bx	lr
	...

08000fc0 <HAL_ADC_ConfigChannel>:
  * @param hadc ADC handle
  * @param pConfig Structure of ADC channel assigned to ADC group regular.
  * @retval HAL status
  */
HAL_StatusTypeDef HAL_ADC_ConfigChannel(ADC_HandleTypeDef *hadc, const ADC_ChannelConfTypeDef *pConfig)
{
 8000fc0:	b580      	push	{r7, lr}
 8000fc2:	b0b6      	sub	sp, #216	@ 0xd8
 8000fc4:	af00      	add	r7, sp, #0
 8000fc6:	6078      	str	r0, [r7, #4]
 8000fc8:	6039      	str	r1, [r7, #0]
  HAL_StatusTypeDef tmp_hal_status = HAL_OK;
 8000fca:	2300      	movs	r3, #0
 8000fcc:	f887 30d7 	strb.w	r3, [r7, #215]	@ 0xd7
  uint32_t tmpOffsetShifted;
  uint32_t tmp_config_internal_channel;
  __IO uint32_t wait_loop_index = 0UL;
 8000fd0:	2300      	movs	r3, #0
 8000fd2:	60bb      	str	r3, [r7, #8]
  {
    assert_param(IS_ADC_DIFF_CHANNEL(hadc, pConfig->Channel));
  }

  /* Process locked */
  __HAL_LOCK(hadc);
 8000fd4:	687b      	ldr	r3, [r7, #4]
 8000fd6:	f893 3054 	ldrb.w	r3, [r3, #84]	@ 0x54
 8000fda:	2b01      	cmp	r3, #1
 8000fdc:	d101      	bne.n	8000fe2 <HAL_ADC_ConfigChannel+0x22>
 8000fde:	2302      	movs	r3, #2
 8000fe0:	e3d5      	b.n	800178e <HAL_ADC_ConfigChannel+0x7ce>
 8000fe2:	687b      	ldr	r3, [r7, #4]
 8000fe4:	2201      	movs	r2, #1
 8000fe6:	f883 2054 	strb.w	r2, [r3, #84]	@ 0x54
  /* Parameters update conditioned to ADC state:                              */
  /* Parameters that can be updated when ADC is disabled or enabled without   */
  /* conversion on going on regular group:                                    */
  /*  - Channel number                                                        */
  /*  - Channel rank                                                          */
  if (LL_ADC_REG_IsConversionOngoing(hadc->Instance) == 0UL)
 8000fea:	687b      	ldr	r3, [r7, #4]
 8000fec:	681b      	ldr	r3, [r3, #0]
 8000fee:	4618      	mov	r0, r3
 8000ff0:	f7ff fd79 	bl	8000ae6 <LL_ADC_REG_IsConversionOngoing>
 8000ff4:	4603      	mov	r3, r0
 8000ff6:	2b00      	cmp	r3, #0
 8000ff8:	f040 83ba 	bne.w	8001770 <HAL_ADC_ConfigChannel+0x7b0>
  {
#if !defined (USE_FULL_ASSERT)
    uint32_t config_rank = pConfig->Rank;
 8000ffc:	683b      	ldr	r3, [r7, #0]
 8000ffe:	685b      	ldr	r3, [r3, #4]
 8001000:	f8c7 30d0 	str.w	r3, [r7, #208]	@ 0xd0
    /* Correspondence for compatibility with legacy definition of             */
    /* sequencer ranks in direct number format. This correspondence can       */
    /* be done only on ranks 1 to 5 due to literal values.                    */
    /* Note: Sequencer ranks in direct number format are no more used         */
    /*       and are detected by activating USE_FULL_ASSERT feature.          */
    if (pConfig->Rank <= 5U)
 8001004:	683b      	ldr	r3, [r7, #0]
 8001006:	685b      	ldr	r3, [r3, #4]
 8001008:	2b05      	cmp	r3, #5
 800100a:	d824      	bhi.n	8001056 <HAL_ADC_ConfigChannel+0x96>
    {
      switch (pConfig->Rank)
 800100c:	683b      	ldr	r3, [r7, #0]
 800100e:	685b      	ldr	r3, [r3, #4]
 8001010:	3b02      	subs	r3, #2
 8001012:	2b03      	cmp	r3, #3
 8001014:	d81b      	bhi.n	800104e <HAL_ADC_ConfigChannel+0x8e>
 8001016:	a201      	add	r2, pc, #4	@ (adr r2, 800101c <HAL_ADC_ConfigChannel+0x5c>)
 8001018:	f852 f023 	ldr.w	pc, [r2, r3, lsl #2]
 800101c:	0800102d 	.word	0x0800102d
 8001020:	08001035 	.word	0x08001035
 8001024:	0800103d 	.word	0x0800103d
 8001028:	08001045 	.word	0x08001045
      {
        case 2U:
          config_rank = ADC_REGULAR_RANK_2;
 800102c:	230c      	movs	r3, #12
 800102e:	f8c7 30d0 	str.w	r3, [r7, #208]	@ 0xd0
          break;
 8001032:	e010      	b.n	8001056 <HAL_ADC_ConfigChannel+0x96>
        case 3U:
          config_rank = ADC_REGULAR_RANK_3;
 8001034:	2312      	movs	r3, #18
 8001036:	f8c7 30d0 	str.w	r3, [r7, #208]	@ 0xd0
          break;
 800103a:	e00c      	b.n	8001056 <HAL_ADC_ConfigChannel+0x96>
        case 4U:
          config_rank = ADC_REGULAR_RANK_4;
 800103c:	2318      	movs	r3, #24
 800103e:	f8c7 30d0 	str.w	r3, [r7, #208]	@ 0xd0
          break;
 8001042:	e008      	b.n	8001056 <HAL_ADC_ConfigChannel+0x96>
        case 5U:
          config_rank = ADC_REGULAR_RANK_5;
 8001044:	f44f 7380 	mov.w	r3, #256	@ 0x100
 8001048:	f8c7 30d0 	str.w	r3, [r7, #208]	@ 0xd0
          break;
 800104c:	e003      	b.n	8001056 <HAL_ADC_ConfigChannel+0x96>
        /* case 1U */
        default:
          config_rank = ADC_REGULAR_RANK_1;
 800104e:	2306      	movs	r3, #6
 8001050:	f8c7 30d0 	str.w	r3, [r7, #208]	@ 0xd0
          break;
 8001054:	bf00      	nop
      }
    }
    /* Set ADC group regular sequence: channel on the selected scan sequence rank */
    LL_ADC_REG_SetSequencerRanks(hadc->Instance, config_rank, pConfig->Channel);
 8001056:	687b      	ldr	r3, [r7, #4]
 8001058:	6818      	ldr	r0, [r3, #0]
 800105a:	683b      	ldr	r3, [r7, #0]
 800105c:	681b      	ldr	r3, [r3, #0]
 800105e:	461a      	mov	r2, r3
 8001060:	f8d7 10d0 	ldr.w	r1, [r7, #208]	@ 0xd0
 8001064:	f7ff fc3b 	bl	80008de <LL_ADC_REG_SetSequencerRanks>
    /* Parameters update conditioned to ADC state:                              */
    /* Parameters that can be updated when ADC is disabled or enabled without   */
    /* conversion on going on regular group:                                    */
    /*  - Channel sampling time                                                 */
    /*  - Channel offset                                                        */
    tmp_adc_is_conversion_on_going_regular = LL_ADC_REG_IsConversionOngoing(hadc->Instance);
 8001068:	687b      	ldr	r3, [r7, #4]
 800106a:	681b      	ldr	r3, [r3, #0]
 800106c:	4618      	mov	r0, r3
 800106e:	f7ff fd3a 	bl	8000ae6 <LL_ADC_REG_IsConversionOngoing>
 8001072:	f8c7 00cc 	str.w	r0, [r7, #204]	@ 0xcc
    tmp_adc_is_conversion_on_going_injected = LL_ADC_INJ_IsConversionOngoing(hadc->Instance);
 8001076:	687b      	ldr	r3, [r7, #4]
 8001078:	681b      	ldr	r3, [r3, #0]
 800107a:	4618      	mov	r0, r3
 800107c:	f7ff fd46 	bl	8000b0c <LL_ADC_INJ_IsConversionOngoing>
 8001080:	f8c7 00c8 	str.w	r0, [r7, #200]	@ 0xc8
    if ((tmp_adc_is_conversion_on_going_regular == 0UL)
 8001084:	f8d7 30cc 	ldr.w	r3, [r7, #204]	@ 0xcc
 8001088:	2b00      	cmp	r3, #0
 800108a:	f040 81bf 	bne.w	800140c <HAL_ADC_ConfigChannel+0x44c>
        && (tmp_adc_is_conversion_on_going_injected == 0UL)
 800108e:	f8d7 30c8 	ldr.w	r3, [r7, #200]	@ 0xc8
 8001092:	2b00      	cmp	r3, #0
 8001094:	f040 81ba 	bne.w	800140c <HAL_ADC_ConfigChannel+0x44c>
       )
    {
#if defined(ADC_SMPR1_SMPPLUS)
      /* Manage specific case of sampling time 3.5 cycles replacing 2.5 cyles */
      if (pConfig->SamplingTime == ADC_SAMPLETIME_3CYCLES_5)
 8001098:	683b      	ldr	r3, [r7, #0]
 800109a:	689b      	ldr	r3, [r3, #8]
 800109c:	f1b3 4f00 	cmp.w	r3, #2147483648	@ 0x80000000
 80010a0:	d10f      	bne.n	80010c2 <HAL_ADC_ConfigChannel+0x102>
      {
        /* Set sampling time of the selected ADC channel */
        LL_ADC_SetChannelSamplingTime(hadc->Instance, pConfig->Channel, LL_ADC_SAMPLINGTIME_2CYCLES_5);
 80010a2:	687b      	ldr	r3, [r7, #4]
 80010a4:	6818      	ldr	r0, [r3, #0]
 80010a6:	683b      	ldr	r3, [r7, #0]
 80010a8:	681b      	ldr	r3, [r3, #0]
 80010aa:	2200      	movs	r2, #0
 80010ac:	4619      	mov	r1, r3
 80010ae:	f7ff fc42 	bl	8000936 <LL_ADC_SetChannelSamplingTime>

        /* Set ADC sampling time common configuration */
        LL_ADC_SetSamplingTimeCommonConfig(hadc->Instance, LL_ADC_SAMPLINGTIME_COMMON_3C5_REPL_2C5);
 80010b2:	687b      	ldr	r3, [r7, #4]
 80010b4:	681b      	ldr	r3, [r3, #0]
 80010b6:	f04f 4100 	mov.w	r1, #2147483648	@ 0x80000000
 80010ba:	4618      	mov	r0, r3
 80010bc:	f7ff fbe9 	bl	8000892 <LL_ADC_SetSamplingTimeCommonConfig>
 80010c0:	e00e      	b.n	80010e0 <HAL_ADC_ConfigChannel+0x120>
      }
      else
      {
        /* Set sampling time of the selected ADC channel */
        LL_ADC_SetChannelSamplingTime(hadc->Instance, pConfig->Channel, pConfig->SamplingTime);
 80010c2:	687b      	ldr	r3, [r7, #4]
 80010c4:	6818      	ldr	r0, [r3, #0]
 80010c6:	683b      	ldr	r3, [r7, #0]
 80010c8:	6819      	ldr	r1, [r3, #0]
 80010ca:	683b      	ldr	r3, [r7, #0]
 80010cc:	689b      	ldr	r3, [r3, #8]
 80010ce:	461a      	mov	r2, r3
 80010d0:	f7ff fc31 	bl	8000936 <LL_ADC_SetChannelSamplingTime>

        /* Set ADC sampling time common configuration */
        LL_ADC_SetSamplingTimeCommonConfig(hadc->Instance, LL_ADC_SAMPLINGTIME_COMMON_DEFAULT);
 80010d4:	687b      	ldr	r3, [r7, #4]
 80010d6:	681b      	ldr	r3, [r3, #0]
 80010d8:	2100      	movs	r1, #0
 80010da:	4618      	mov	r0, r3
 80010dc:	f7ff fbd9 	bl	8000892 <LL_ADC_SetSamplingTimeCommonConfig>

      /* Configure the offset: offset enable/disable, channel, offset value */

      /* Shift the offset with respect to the selected ADC resolution. */
      /* Offset has to be left-aligned on bit 11, the LSB (right bits) are set to 0 */
      tmpOffsetShifted = ADC_OFFSET_SHIFT_RESOLUTION(hadc, (uint32_t)pConfig->Offset);
 80010e0:	683b      	ldr	r3, [r7, #0]
 80010e2:	695a      	ldr	r2, [r3, #20]
 80010e4:	687b      	ldr	r3, [r7, #4]
 80010e6:	681b      	ldr	r3, [r3, #0]
 80010e8:	68db      	ldr	r3, [r3, #12]
 80010ea:	08db      	lsrs	r3, r3, #3
 80010ec:	f003 0303 	and.w	r3, r3, #3
 80010f0:	005b      	lsls	r3, r3, #1
 80010f2:	fa02 f303 	lsl.w	r3, r2, r3
 80010f6:	f8c7 30c4 	str.w	r3, [r7, #196]	@ 0xc4

      if (pConfig->OffsetNumber != ADC_OFFSET_NONE)
 80010fa:	683b      	ldr	r3, [r7, #0]
 80010fc:	691b      	ldr	r3, [r3, #16]
 80010fe:	2b04      	cmp	r3, #4
 8001100:	d00a      	beq.n	8001118 <HAL_ADC_ConfigChannel+0x158>
      {
        /* Set ADC selected offset number */
        LL_ADC_SetOffset(hadc->Instance, pConfig->OffsetNumber, pConfig->Channel, tmpOffsetShifted);
 8001102:	687b      	ldr	r3, [r7, #4]
 8001104:	6818      	ldr	r0, [r3, #0]
 8001106:	683b      	ldr	r3, [r7, #0]
 8001108:	6919      	ldr	r1, [r3, #16]
 800110a:	683b      	ldr	r3, [r7, #0]
 800110c:	681a      	ldr	r2, [r3, #0]
 800110e:	f8d7 30c4 	ldr.w	r3, [r7, #196]	@ 0xc4
 8001112:	f7ff fb69 	bl	80007e8 <LL_ADC_SetOffset>
 8001116:	e179      	b.n	800140c <HAL_ADC_ConfigChannel+0x44c>
      }
      else
      {
        /* Scan each offset register to check if the selected channel is targeted. */
        /* If this is the case, the corresponding offset number is disabled.       */
        if (__LL_ADC_CHANNEL_TO_DECIMAL_NB(LL_ADC_GetOffsetChannel(hadc->Instance, LL_ADC_OFFSET_1))
 8001118:	687b      	ldr	r3, [r7, #4]
 800111a:	681b      	ldr	r3, [r3, #0]
 800111c:	2100      	movs	r1, #0
 800111e:	4618      	mov	r0, r3
 8001120:	f7ff fb86 	bl	8000830 <LL_ADC_GetOffsetChannel>
 8001124:	4603      	mov	r3, r0
 8001126:	f3c3 0312 	ubfx	r3, r3, #0, #19
 800112a:	2b00      	cmp	r3, #0
 800112c:	d10a      	bne.n	8001144 <HAL_ADC_ConfigChannel+0x184>
 800112e:	687b      	ldr	r3, [r7, #4]
 8001130:	681b      	ldr	r3, [r3, #0]
 8001132:	2100      	movs	r1, #0
 8001134:	4618      	mov	r0, r3
 8001136:	f7ff fb7b 	bl	8000830 <LL_ADC_GetOffsetChannel>
 800113a:	4603      	mov	r3, r0
 800113c:	0e9b      	lsrs	r3, r3, #26
 800113e:	f003 021f 	and.w	r2, r3, #31
 8001142:	e01e      	b.n	8001182 <HAL_ADC_ConfigChannel+0x1c2>
 8001144:	687b      	ldr	r3, [r7, #4]
 8001146:	681b      	ldr	r3, [r3, #0]
 8001148:	2100      	movs	r1, #0
 800114a:	4618      	mov	r0, r3
 800114c:	f7ff fb70 	bl	8000830 <LL_ADC_GetOffsetChannel>
 8001150:	4603      	mov	r3, r0
 8001152:	f8c7 30b8 	str.w	r3, [r7, #184]	@ 0xb8
  uint32_t result;

#if ((defined (__ARM_ARCH_7M__      ) && (__ARM_ARCH_7M__      == 1)) || \
     (defined (__ARM_ARCH_7EM__     ) && (__ARM_ARCH_7EM__     == 1)) || \
     (defined (__ARM_ARCH_8M_MAIN__ ) && (__ARM_ARCH_8M_MAIN__ == 1))    )
   __ASM volatile ("rbit %0, %1" : "=r" (result) : "r" (value) );
 8001156:	f8d7 30b8 	ldr.w	r3, [r7, #184]	@ 0xb8
 800115a:	fa93 f3a3 	rbit	r3, r3
 800115e:	f8c7 30b4 	str.w	r3, [r7, #180]	@ 0xb4
    result |= value & 1U;
    s--;
  }
  result <<= s;                        /* shift when v's highest bits are zero */
#endif
  return result;
 8001162:	f8d7 30b4 	ldr.w	r3, [r7, #180]	@ 0xb4
 8001166:	f8c7 30bc 	str.w	r3, [r7, #188]	@ 0xbc
     optimisations using the logic "value was passed to __builtin_clz, so it
     is non-zero".
     ARM GCC 7.3 and possibly earlier will optimise this test away, leaving a
     single CLZ instruction.
   */
  if (value == 0U)
 800116a:	f8d7 30bc 	ldr.w	r3, [r7, #188]	@ 0xbc
 800116e:	2b00      	cmp	r3, #0
 8001170:	d101      	bne.n	8001176 <HAL_ADC_ConfigChannel+0x1b6>
  {
    return 32U;
 8001172:	2320      	movs	r3, #32
 8001174:	e004      	b.n	8001180 <HAL_ADC_ConfigChannel+0x1c0>
  }
  return __builtin_clz(value);
 8001176:	f8d7 30bc 	ldr.w	r3, [r7, #188]	@ 0xbc
 800117a:	fab3 f383 	clz	r3, r3
 800117e:	b2db      	uxtb	r3, r3
 8001180:	461a      	mov	r2, r3
            == __LL_ADC_CHANNEL_TO_DECIMAL_NB(pConfig->Channel))
 8001182:	683b      	ldr	r3, [r7, #0]
 8001184:	681b      	ldr	r3, [r3, #0]
 8001186:	f3c3 0312 	ubfx	r3, r3, #0, #19
 800118a:	2b00      	cmp	r3, #0
 800118c:	d105      	bne.n	800119a <HAL_ADC_ConfigChannel+0x1da>
 800118e:	683b      	ldr	r3, [r7, #0]
 8001190:	681b      	ldr	r3, [r3, #0]
 8001192:	0e9b      	lsrs	r3, r3, #26
 8001194:	f003 031f 	and.w	r3, r3, #31
 8001198:	e018      	b.n	80011cc <HAL_ADC_ConfigChannel+0x20c>
 800119a:	683b      	ldr	r3, [r7, #0]
 800119c:	681b      	ldr	r3, [r3, #0]
 800119e:	f8c7 30ac 	str.w	r3, [r7, #172]	@ 0xac
   __ASM volatile ("rbit %0, %1" : "=r" (result) : "r" (value) );
 80011a2:	f8d7 30ac 	ldr.w	r3, [r7, #172]	@ 0xac
 80011a6:	fa93 f3a3 	rbit	r3, r3
 80011aa:	f8c7 30a8 	str.w	r3, [r7, #168]	@ 0xa8
  return result;
 80011ae:	f8d7 30a8 	ldr.w	r3, [r7, #168]	@ 0xa8
 80011b2:	f8c7 30b0 	str.w	r3, [r7, #176]	@ 0xb0
  if (value == 0U)
 80011b6:	f8d7 30b0 	ldr.w	r3, [r7, #176]	@ 0xb0
 80011ba:	2b00      	cmp	r3, #0
 80011bc:	d101      	bne.n	80011c2 <HAL_ADC_ConfigChannel+0x202>
    return 32U;
 80011be:	2320      	movs	r3, #32
 80011c0:	e004      	b.n	80011cc <HAL_ADC_ConfigChannel+0x20c>
  return __builtin_clz(value);
 80011c2:	f8d7 30b0 	ldr.w	r3, [r7, #176]	@ 0xb0
 80011c6:	fab3 f383 	clz	r3, r3
 80011ca:	b2db      	uxtb	r3, r3
        if (__LL_ADC_CHANNEL_TO_DECIMAL_NB(LL_ADC_GetOffsetChannel(hadc->Instance, LL_ADC_OFFSET_1))
 80011cc:	429a      	cmp	r2, r3
 80011ce:	d106      	bne.n	80011de <HAL_ADC_ConfigChannel+0x21e>
        {
          LL_ADC_SetOffsetState(hadc->Instance, LL_ADC_OFFSET_1, LL_ADC_OFFSET_DISABLE);
 80011d0:	687b      	ldr	r3, [r7, #4]
 80011d2:	681b      	ldr	r3, [r3, #0]
 80011d4:	2200      	movs	r2, #0
 80011d6:	2100      	movs	r1, #0
 80011d8:	4618      	mov	r0, r3
 80011da:	f7ff fb3f 	bl	800085c <LL_ADC_SetOffsetState>
        }
        if (__LL_ADC_CHANNEL_TO_DECIMAL_NB(LL_ADC_GetOffsetChannel(hadc->Instance, LL_ADC_OFFSET_2))
 80011de:	687b      	ldr	r3, [r7, #4]
 80011e0:	681b      	ldr	r3, [r3, #0]
 80011e2:	2101      	movs	r1, #1
 80011e4:	4618      	mov	r0, r3
 80011e6:	f7ff fb23 	bl	8000830 <LL_ADC_GetOffsetChannel>
 80011ea:	4603      	mov	r3, r0
 80011ec:	f3c3 0312 	ubfx	r3, r3, #0, #19
 80011f0:	2b00      	cmp	r3, #0
 80011f2:	d10a      	bne.n	800120a <HAL_ADC_ConfigChannel+0x24a>
 80011f4:	687b      	ldr	r3, [r7, #4]
 80011f6:	681b      	ldr	r3, [r3, #0]
 80011f8:	2101      	movs	r1, #1
 80011fa:	4618      	mov	r0, r3
 80011fc:	f7ff fb18 	bl	8000830 <LL_ADC_GetOffsetChannel>
 8001200:	4603      	mov	r3, r0
 8001202:	0e9b      	lsrs	r3, r3, #26
 8001204:	f003 021f 	and.w	r2, r3, #31
 8001208:	e01e      	b.n	8001248 <HAL_ADC_ConfigChannel+0x288>
 800120a:	687b      	ldr	r3, [r7, #4]
 800120c:	681b      	ldr	r3, [r3, #0]
 800120e:	2101      	movs	r1, #1
 8001210:	4618      	mov	r0, r3
 8001212:	f7ff fb0d 	bl	8000830 <LL_ADC_GetOffsetChannel>
 8001216:	4603      	mov	r3, r0
 8001218:	f8c7 30a0 	str.w	r3, [r7, #160]	@ 0xa0
   __ASM volatile ("rbit %0, %1" : "=r" (result) : "r" (value) );
 800121c:	f8d7 30a0 	ldr.w	r3, [r7, #160]	@ 0xa0
 8001220:	fa93 f3a3 	rbit	r3, r3
 8001224:	f8c7 309c 	str.w	r3, [r7, #156]	@ 0x9c
  return result;
 8001228:	f8d7 309c 	ldr.w	r3, [r7, #156]	@ 0x9c
 800122c:	f8c7 30a4 	str.w	r3, [r7, #164]	@ 0xa4
  if (value == 0U)
 8001230:	f8d7 30a4 	ldr.w	r3, [r7, #164]	@ 0xa4
 8001234:	2b00      	cmp	r3, #0
 8001236:	d101      	bne.n	800123c <HAL_ADC_ConfigChannel+0x27c>
    return 32U;
 8001238:	2320      	movs	r3, #32
 800123a:	e004      	b.n	8001246 <HAL_ADC_ConfigChannel+0x286>
  return __builtin_clz(value);
 800123c:	f8d7 30a4 	ldr.w	r3, [r7, #164]	@ 0xa4
 8001240:	fab3 f383 	clz	r3, r3
 8001244:	b2db      	uxtb	r3, r3
 8001246:	461a      	mov	r2, r3
            == __LL_ADC_CHANNEL_TO_DECIMAL_NB(pConfig->Channel))
 8001248:	683b      	ldr	r3, [r7, #0]
 800124a:	681b      	ldr	r3, [r3, #0]
 800124c:	f3c3 0312 	ubfx	r3, r3, #0, #19
 8001250:	2b00      	cmp	r3, #0
 8001252:	d105      	bne.n	8001260 <HAL_ADC_ConfigChannel+0x2a0>
 8001254:	683b      	ldr	r3, [r7, #0]
 8001256:	681b      	ldr	r3, [r3, #0]
 8001258:	0e9b      	lsrs	r3, r3, #26
 800125a:	f003 031f 	and.w	r3, r3, #31
 800125e:	e018      	b.n	8001292 <HAL_ADC_ConfigChannel+0x2d2>
 8001260:	683b      	ldr	r3, [r7, #0]
 8001262:	681b      	ldr	r3, [r3, #0]
 8001264:	f8c7 3094 	str.w	r3, [r7, #148]	@ 0x94
   __ASM volatile ("rbit %0, %1" : "=r" (result) : "r" (value) );
 8001268:	f8d7 3094 	ldr.w	r3, [r7, #148]	@ 0x94
 800126c:	fa93 f3a3 	rbit	r3, r3
 8001270:	f8c7 3090 	str.w	r3, [r7, #144]	@ 0x90
  return result;
 8001274:	f8d7 3090 	ldr.w	r3, [r7, #144]	@ 0x90
 8001278:	f8c7 3098 	str.w	r3, [r7, #152]	@ 0x98
  if (value == 0U)
 800127c:	f8d7 3098 	ldr.w	r3, [r7, #152]	@ 0x98
 8001280:	2b00      	cmp	r3, #0
 8001282:	d101      	bne.n	8001288 <HAL_ADC_ConfigChannel+0x2c8>
    return 32U;
 8001284:	2320      	movs	r3, #32
 8001286:	e004      	b.n	8001292 <HAL_ADC_ConfigChannel+0x2d2>
  return __builtin_clz(value);
 8001288:	f8d7 3098 	ldr.w	r3, [r7, #152]	@ 0x98
 800128c:	fab3 f383 	clz	r3, r3
 8001290:	b2db      	uxtb	r3, r3
        if (__LL_ADC_CHANNEL_TO_DECIMAL_NB(LL_ADC_GetOffsetChannel(hadc->Instance, LL_ADC_OFFSET_2))
 8001292:	429a      	cmp	r2, r3
 8001294:	d106      	bne.n	80012a4 <HAL_ADC_ConfigChannel+0x2e4>
        {
          LL_ADC_SetOffsetState(hadc->Instance, LL_ADC_OFFSET_2, LL_ADC_OFFSET_DISABLE);
 8001296:	687b      	ldr	r3, [r7, #4]
 8001298:	681b      	ldr	r3, [r3, #0]
 800129a:	2200      	movs	r2, #0
 800129c:	2101      	movs	r1, #1
 800129e:	4618      	mov	r0, r3
 80012a0:	f7ff fadc 	bl	800085c <LL_ADC_SetOffsetState>
        }
        if (__LL_ADC_CHANNEL_TO_DECIMAL_NB(LL_ADC_GetOffsetChannel(hadc->Instance, LL_ADC_OFFSET_3))
 80012a4:	687b      	ldr	r3, [r7, #4]
 80012a6:	681b      	ldr	r3, [r3, #0]
 80012a8:	2102      	movs	r1, #2
 80012aa:	4618      	mov	r0, r3
 80012ac:	f7ff fac0 	bl	8000830 <LL_ADC_GetOffsetChannel>
 80012b0:	4603      	mov	r3, r0
 80012b2:	f3c3 0312 	ubfx	r3, r3, #0, #19
 80012b6:	2b00      	cmp	r3, #0
 80012b8:	d10a      	bne.n	80012d0 <HAL_ADC_ConfigChannel+0x310>
 80012ba:	687b      	ldr	r3, [r7, #4]
 80012bc:	681b      	ldr	r3, [r3, #0]
 80012be:	2102      	movs	r1, #2
 80012c0:	4618      	mov	r0, r3
 80012c2:	f7ff fab5 	bl	8000830 <LL_ADC_GetOffsetChannel>
 80012c6:	4603      	mov	r3, r0
 80012c8:	0e9b      	lsrs	r3, r3, #26
 80012ca:	f003 021f 	and.w	r2, r3, #31
 80012ce:	e01e      	b.n	800130e <HAL_ADC_ConfigChannel+0x34e>
 80012d0:	687b      	ldr	r3, [r7, #4]
 80012d2:	681b      	ldr	r3, [r3, #0]
 80012d4:	2102      	movs	r1, #2
 80012d6:	4618      	mov	r0, r3
 80012d8:	f7ff faaa 	bl	8000830 <LL_ADC_GetOffsetChannel>
 80012dc:	4603      	mov	r3, r0
 80012de:	f8c7 3088 	str.w	r3, [r7, #136]	@ 0x88
   __ASM volatile ("rbit %0, %1" : "=r" (result) : "r" (value) );
 80012e2:	f8d7 3088 	ldr.w	r3, [r7, #136]	@ 0x88
 80012e6:	fa93 f3a3 	rbit	r3, r3
 80012ea:	f8c7 3084 	str.w	r3, [r7, #132]	@ 0x84
  return result;
 80012ee:	f8d7 3084 	ldr.w	r3, [r7, #132]	@ 0x84
 80012f2:	f8c7 308c 	str.w	r3, [r7, #140]	@ 0x8c
  if (value == 0U)
 80012f6:	f8d7 308c 	ldr.w	r3, [r7, #140]	@ 0x8c
 80012fa:	2b00      	cmp	r3, #0
 80012fc:	d101      	bne.n	8001302 <HAL_ADC_ConfigChannel+0x342>
    return 32U;
 80012fe:	2320      	movs	r3, #32
 8001300:	e004      	b.n	800130c <HAL_ADC_ConfigChannel+0x34c>
  return __builtin_clz(value);
 8001302:	f8d7 308c 	ldr.w	r3, [r7, #140]	@ 0x8c
 8001306:	fab3 f383 	clz	r3, r3
 800130a:	b2db      	uxtb	r3, r3
 800130c:	461a      	mov	r2, r3
            == __LL_ADC_CHANNEL_TO_DECIMAL_NB(pConfig->Channel))
 800130e:	683b      	ldr	r3, [r7, #0]
 8001310:	681b      	ldr	r3, [r3, #0]
 8001312:	f3c3 0312 	ubfx	r3, r3, #0, #19
 8001316:	2b00      	cmp	r3, #0
 8001318:	d105      	bne.n	8001326 <HAL_ADC_ConfigChannel+0x366>
 800131a:	683b      	ldr	r3, [r7, #0]
 800131c:	681b      	ldr	r3, [r3, #0]
 800131e:	0e9b      	lsrs	r3, r3, #26
 8001320:	f003 031f 	and.w	r3, r3, #31
 8001324:	e014      	b.n	8001350 <HAL_ADC_ConfigChannel+0x390>
 8001326:	683b      	ldr	r3, [r7, #0]
 8001328:	681b      	ldr	r3, [r3, #0]
 800132a:	67fb      	str	r3, [r7, #124]	@ 0x7c
   __ASM volatile ("rbit %0, %1" : "=r" (result) : "r" (value) );
 800132c:	6ffb      	ldr	r3, [r7, #124]	@ 0x7c
 800132e:	fa93 f3a3 	rbit	r3, r3
 8001332:	67bb      	str	r3, [r7, #120]	@ 0x78
  return result;
 8001334:	6fbb      	ldr	r3, [r7, #120]	@ 0x78
 8001336:	f8c7 3080 	str.w	r3, [r7, #128]	@ 0x80
  if (value == 0U)
 800133a:	f8d7 3080 	ldr.w	r3, [r7, #128]	@ 0x80
 800133e:	2b00      	cmp	r3, #0
 8001340:	d101      	bne.n	8001346 <HAL_ADC_ConfigChannel+0x386>
    return 32U;
 8001342:	2320      	movs	r3, #32
 8001344:	e004      	b.n	8001350 <HAL_ADC_ConfigChannel+0x390>
  return __builtin_clz(value);
 8001346:	f8d7 3080 	ldr.w	r3, [r7, #128]	@ 0x80
 800134a:	fab3 f383 	clz	r3, r3
 800134e:	b2db      	uxtb	r3, r3
        if (__LL_ADC_CHANNEL_TO_DECIMAL_NB(LL_ADC_GetOffsetChannel(hadc->Instance, LL_ADC_OFFSET_3))
 8001350:	429a      	cmp	r2, r3
 8001352:	d106      	bne.n	8001362 <HAL_ADC_ConfigChannel+0x3a2>
        {
          LL_ADC_SetOffsetState(hadc->Instance, LL_ADC_OFFSET_3, LL_ADC_OFFSET_DISABLE);
 8001354:	687b      	ldr	r3, [r7, #4]
 8001356:	681b      	ldr	r3, [r3, #0]
 8001358:	2200      	movs	r2, #0
 800135a:	2102      	movs	r1, #2
 800135c:	4618      	mov	r0, r3
 800135e:	f7ff fa7d 	bl	800085c <LL_ADC_SetOffsetState>
        }
        if (__LL_ADC_CHANNEL_TO_DECIMAL_NB(LL_ADC_GetOffsetChannel(hadc->Instance, LL_ADC_OFFSET_4))
 8001362:	687b      	ldr	r3, [r7, #4]
 8001364:	681b      	ldr	r3, [r3, #0]
 8001366:	2103      	movs	r1, #3
 8001368:	4618      	mov	r0, r3
 800136a:	f7ff fa61 	bl	8000830 <LL_ADC_GetOffsetChannel>
 800136e:	4603      	mov	r3, r0
 8001370:	f3c3 0312 	ubfx	r3, r3, #0, #19
 8001374:	2b00      	cmp	r3, #0
 8001376:	d10a      	bne.n	800138e <HAL_ADC_ConfigChannel+0x3ce>
 8001378:	687b      	ldr	r3, [r7, #4]
 800137a:	681b      	ldr	r3, [r3, #0]
 800137c:	2103      	movs	r1, #3
 800137e:	4618      	mov	r0, r3
 8001380:	f7ff fa56 	bl	8000830 <LL_ADC_GetOffsetChannel>
 8001384:	4603      	mov	r3, r0
 8001386:	0e9b      	lsrs	r3, r3, #26
 8001388:	f003 021f 	and.w	r2, r3, #31
 800138c:	e017      	b.n	80013be <HAL_ADC_ConfigChannel+0x3fe>
 800138e:	687b      	ldr	r3, [r7, #4]
 8001390:	681b      	ldr	r3, [r3, #0]
 8001392:	2103      	movs	r1, #3
 8001394:	4618      	mov	r0, r3
 8001396:	f7ff fa4b 	bl	8000830 <LL_ADC_GetOffsetChannel>
 800139a:	4603      	mov	r3, r0
 800139c:	673b      	str	r3, [r7, #112]	@ 0x70
   __ASM volatile ("rbit %0, %1" : "=r" (result) : "r" (value) );
 800139e:	6f3b      	ldr	r3, [r7, #112]	@ 0x70
 80013a0:	fa93 f3a3 	rbit	r3, r3
 80013a4:	66fb      	str	r3, [r7, #108]	@ 0x6c
  return result;
 80013a6:	6efb      	ldr	r3, [r7, #108]	@ 0x6c
 80013a8:	677b      	str	r3, [r7, #116]	@ 0x74
  if (value == 0U)
 80013aa:	6f7b      	ldr	r3, [r7, #116]	@ 0x74
 80013ac:	2b00      	cmp	r3, #0
 80013ae:	d101      	bne.n	80013b4 <HAL_ADC_ConfigChannel+0x3f4>
    return 32U;
 80013b0:	2320      	movs	r3, #32
 80013b2:	e003      	b.n	80013bc <HAL_ADC_ConfigChannel+0x3fc>
  return __builtin_clz(value);
 80013b4:	6f7b      	ldr	r3, [r7, #116]	@ 0x74
 80013b6:	fab3 f383 	clz	r3, r3
 80013ba:	b2db      	uxtb	r3, r3
 80013bc:	461a      	mov	r2, r3
            == __LL_ADC_CHANNEL_TO_DECIMAL_NB(pConfig->Channel))
 80013be:	683b      	ldr	r3, [r7, #0]
 80013c0:	681b      	ldr	r3, [r3, #0]
 80013c2:	f3c3 0312 	ubfx	r3, r3, #0, #19
 80013c6:	2b00      	cmp	r3, #0
 80013c8:	d105      	bne.n	80013d6 <HAL_ADC_ConfigChannel+0x416>
 80013ca:	683b      	ldr	r3, [r7, #0]
 80013cc:	681b      	ldr	r3, [r3, #0]
 80013ce:	0e9b      	lsrs	r3, r3, #26
 80013d0:	f003 031f 	and.w	r3, r3, #31
 80013d4:	e011      	b.n	80013fa <HAL_ADC_ConfigChannel+0x43a>
 80013d6:	683b      	ldr	r3, [r7, #0]
 80013d8:	681b      	ldr	r3, [r3, #0]
 80013da:	667b      	str	r3, [r7, #100]	@ 0x64
   __ASM volatile ("rbit %0, %1" : "=r" (result) : "r" (value) );
 80013dc:	6e7b      	ldr	r3, [r7, #100]	@ 0x64
 80013de:	fa93 f3a3 	rbit	r3, r3
 80013e2:	663b      	str	r3, [r7, #96]	@ 0x60
  return result;
 80013e4:	6e3b      	ldr	r3, [r7, #96]	@ 0x60
 80013e6:	66bb      	str	r3, [r7, #104]	@ 0x68
  if (value == 0U)
 80013e8:	6ebb      	ldr	r3, [r7, #104]	@ 0x68
 80013ea:	2b00      	cmp	r3, #0
 80013ec:	d101      	bne.n	80013f2 <HAL_ADC_ConfigChannel+0x432>
    return 32U;
 80013ee:	2320      	movs	r3, #32
 80013f0:	e003      	b.n	80013fa <HAL_ADC_ConfigChannel+0x43a>
  return __builtin_clz(value);
 80013f2:	6ebb      	ldr	r3, [r7, #104]	@ 0x68
 80013f4:	fab3 f383 	clz	r3, r3
 80013f8:	b2db      	uxtb	r3, r3
        if (__LL_ADC_CHANNEL_TO_DECIMAL_NB(LL_ADC_GetOffsetChannel(hadc->Instance, LL_ADC_OFFSET_4))
 80013fa:	429a      	cmp	r2, r3
 80013fc:	d106      	bne.n	800140c <HAL_ADC_ConfigChannel+0x44c>
        {
          LL_ADC_SetOffsetState(hadc->Instance, LL_ADC_OFFSET_4, LL_ADC_OFFSET_DISABLE);
 80013fe:	687b      	ldr	r3, [r7, #4]
 8001400:	681b      	ldr	r3, [r3, #0]
 8001402:	2200      	movs	r2, #0
 8001404:	2103      	movs	r1, #3
 8001406:	4618      	mov	r0, r3
 8001408:	f7ff fa28 	bl	800085c <LL_ADC_SetOffsetState>
    }

    /* Parameters update conditioned to ADC state:                              */
    /* Parameters that can be updated only when ADC is disabled:                */
    /*  - Single or differential mode                                           */
    if (LL_ADC_IsEnabled(hadc->Instance) == 0UL)
 800140c:	687b      	ldr	r3, [r7, #4]
 800140e:	681b      	ldr	r3, [r3, #0]
 8001410:	4618      	mov	r0, r3
 8001412:	f7ff fb41 	bl	8000a98 <LL_ADC_IsEnabled>
 8001416:	4603      	mov	r3, r0
 8001418:	2b00      	cmp	r3, #0
 800141a:	f040 813f 	bne.w	800169c <HAL_ADC_ConfigChannel+0x6dc>
    {
      /* Set mode single-ended or differential input of the selected ADC channel */
      LL_ADC_SetChannelSingleDiff(hadc->Instance, pConfig->Channel, pConfig->SingleDiff);
 800141e:	687b      	ldr	r3, [r7, #4]
 8001420:	6818      	ldr	r0, [r3, #0]
 8001422:	683b      	ldr	r3, [r7, #0]
 8001424:	6819      	ldr	r1, [r3, #0]
 8001426:	683b      	ldr	r3, [r7, #0]
 8001428:	68db      	ldr	r3, [r3, #12]
 800142a:	461a      	mov	r2, r3
 800142c:	f7ff faae 	bl	800098c <LL_ADC_SetChannelSingleDiff>

      /* Configuration of differential mode */
      if (pConfig->SingleDiff == ADC_DIFFERENTIAL_ENDED)
 8001430:	683b      	ldr	r3, [r7, #0]
 8001432:	68db      	ldr	r3, [r3, #12]
 8001434:	4a8e      	ldr	r2, [pc, #568]	@ (8001670 <HAL_ADC_ConfigChannel+0x6b0>)
 8001436:	4293      	cmp	r3, r2
 8001438:	f040 8130 	bne.w	800169c <HAL_ADC_ConfigChannel+0x6dc>
      {
        /* Set sampling time of the selected ADC channel */
        /* Note: ADC channel number masked with value "0x1F" to ensure shift value within 32 bits range */
        LL_ADC_SetChannelSamplingTime(hadc->Instance,
 800143c:	687b      	ldr	r3, [r7, #4]
 800143e:	6818      	ldr	r0, [r3, #0]
                                      (uint32_t)(__LL_ADC_DECIMAL_NB_TO_CHANNEL(
 8001440:	683b      	ldr	r3, [r7, #0]
 8001442:	681b      	ldr	r3, [r3, #0]
 8001444:	f3c3 0312 	ubfx	r3, r3, #0, #19
 8001448:	2b00      	cmp	r3, #0
 800144a:	d10b      	bne.n	8001464 <HAL_ADC_ConfigChannel+0x4a4>
 800144c:	683b      	ldr	r3, [r7, #0]
 800144e:	681b      	ldr	r3, [r3, #0]
 8001450:	0e9b      	lsrs	r3, r3, #26
 8001452:	3301      	adds	r3, #1
 8001454:	f003 031f 	and.w	r3, r3, #31
 8001458:	2b09      	cmp	r3, #9
 800145a:	bf94      	ite	ls
 800145c:	2301      	movls	r3, #1
 800145e:	2300      	movhi	r3, #0
 8001460:	b2db      	uxtb	r3, r3
 8001462:	e019      	b.n	8001498 <HAL_ADC_ConfigChannel+0x4d8>
 8001464:	683b      	ldr	r3, [r7, #0]
 8001466:	681b      	ldr	r3, [r3, #0]
 8001468:	65bb      	str	r3, [r7, #88]	@ 0x58
   __ASM volatile ("rbit %0, %1" : "=r" (result) : "r" (value) );
 800146a:	6dbb      	ldr	r3, [r7, #88]	@ 0x58
 800146c:	fa93 f3a3 	rbit	r3, r3
 8001470:	657b      	str	r3, [r7, #84]	@ 0x54
  return result;
 8001472:	6d7b      	ldr	r3, [r7, #84]	@ 0x54
 8001474:	65fb      	str	r3, [r7, #92]	@ 0x5c
  if (value == 0U)
 8001476:	6dfb      	ldr	r3, [r7, #92]	@ 0x5c
 8001478:	2b00      	cmp	r3, #0
 800147a:	d101      	bne.n	8001480 <HAL_ADC_ConfigChannel+0x4c0>
    return 32U;
 800147c:	2320      	movs	r3, #32
 800147e:	e003      	b.n	8001488 <HAL_ADC_ConfigChannel+0x4c8>
  return __builtin_clz(value);
 8001480:	6dfb      	ldr	r3, [r7, #92]	@ 0x5c
 8001482:	fab3 f383 	clz	r3, r3
 8001486:	b2db      	uxtb	r3, r3
 8001488:	3301      	adds	r3, #1
 800148a:	f003 031f 	and.w	r3, r3, #31
 800148e:	2b09      	cmp	r3, #9
 8001490:	bf94      	ite	ls
 8001492:	2301      	movls	r3, #1
 8001494:	2300      	movhi	r3, #0
 8001496:	b2db      	uxtb	r3, r3
        LL_ADC_SetChannelSamplingTime(hadc->Instance,
 8001498:	2b00      	cmp	r3, #0
 800149a:	d079      	beq.n	8001590 <HAL_ADC_ConfigChannel+0x5d0>
                                      (uint32_t)(__LL_ADC_DECIMAL_NB_TO_CHANNEL(
 800149c:	683b      	ldr	r3, [r7, #0]
 800149e:	681b      	ldr	r3, [r3, #0]
 80014a0:	f3c3 0312 	ubfx	r3, r3, #0, #19
 80014a4:	2b00      	cmp	r3, #0
 80014a6:	d107      	bne.n	80014b8 <HAL_ADC_ConfigChannel+0x4f8>
 80014a8:	683b      	ldr	r3, [r7, #0]
 80014aa:	681b      	ldr	r3, [r3, #0]
 80014ac:	0e9b      	lsrs	r3, r3, #26
 80014ae:	3301      	adds	r3, #1
 80014b0:	069b      	lsls	r3, r3, #26
 80014b2:	f003 42f8 	and.w	r2, r3, #2080374784	@ 0x7c000000
 80014b6:	e015      	b.n	80014e4 <HAL_ADC_ConfigChannel+0x524>
 80014b8:	683b      	ldr	r3, [r7, #0]
 80014ba:	681b      	ldr	r3, [r3, #0]
 80014bc:	64fb      	str	r3, [r7, #76]	@ 0x4c
   __ASM volatile ("rbit %0, %1" : "=r" (result) : "r" (value) );
 80014be:	6cfb      	ldr	r3, [r7, #76]	@ 0x4c
 80014c0:	fa93 f3a3 	rbit	r3, r3
 80014c4:	64bb      	str	r3, [r7, #72]	@ 0x48
  return result;
 80014c6:	6cbb      	ldr	r3, [r7, #72]	@ 0x48
 80014c8:	653b      	str	r3, [r7, #80]	@ 0x50
  if (value == 0U)
 80014ca:	6d3b      	ldr	r3, [r7, #80]	@ 0x50
 80014cc:	2b00      	cmp	r3, #0
 80014ce:	d101      	bne.n	80014d4 <HAL_ADC_ConfigChannel+0x514>
    return 32U;
 80014d0:	2320      	movs	r3, #32
 80014d2:	e003      	b.n	80014dc <HAL_ADC_ConfigChannel+0x51c>
  return __builtin_clz(value);
 80014d4:	6d3b      	ldr	r3, [r7, #80]	@ 0x50
 80014d6:	fab3 f383 	clz	r3, r3
 80014da:	b2db      	uxtb	r3, r3
 80014dc:	3301      	adds	r3, #1
 80014de:	069b      	lsls	r3, r3, #26
 80014e0:	f003 42f8 	and.w	r2, r3, #2080374784	@ 0x7c000000
 80014e4:	683b      	ldr	r3, [r7, #0]
 80014e6:	681b      	ldr	r3, [r3, #0]
 80014e8:	f3c3 0312 	ubfx	r3, r3, #0, #19
 80014ec:	2b00      	cmp	r3, #0
 80014ee:	d109      	bne.n	8001504 <HAL_ADC_ConfigChannel+0x544>
 80014f0:	683b      	ldr	r3, [r7, #0]
 80014f2:	681b      	ldr	r3, [r3, #0]
 80014f4:	0e9b      	lsrs	r3, r3, #26
 80014f6:	3301      	adds	r3, #1
 80014f8:	f003 031f 	and.w	r3, r3, #31
 80014fc:	2101      	movs	r1, #1
 80014fe:	fa01 f303 	lsl.w	r3, r1, r3
 8001502:	e017      	b.n	8001534 <HAL_ADC_ConfigChannel+0x574>
 8001504:	683b      	ldr	r3, [r7, #0]
 8001506:	681b      	ldr	r3, [r3, #0]
 8001508:	643b      	str	r3, [r7, #64]	@ 0x40
   __ASM volatile ("rbit %0, %1" : "=r" (result) : "r" (value) );
 800150a:	6c3b      	ldr	r3, [r7, #64]	@ 0x40
 800150c:	fa93 f3a3 	rbit	r3, r3
 8001510:	63fb      	str	r3, [r7, #60]	@ 0x3c
  return result;
 8001512:	6bfb      	ldr	r3, [r7, #60]	@ 0x3c
 8001514:	647b      	str	r3, [r7, #68]	@ 0x44
  if (value == 0U)
 8001516:	6c7b      	ldr	r3, [r7, #68]	@ 0x44
 8001518:	2b00      	cmp	r3, #0
 800151a:	d101      	bne.n	8001520 <HAL_ADC_ConfigChannel+0x560>
    return 32U;
 800151c:	2320      	movs	r3, #32
 800151e:	e003      	b.n	8001528 <HAL_ADC_ConfigChannel+0x568>
  return __builtin_clz(value);
 8001520:	6c7b      	ldr	r3, [r7, #68]	@ 0x44
 8001522:	fab3 f383 	clz	r3, r3
 8001526:	b2db      	uxtb	r3, r3
 8001528:	3301      	adds	r3, #1
 800152a:	f003 031f 	and.w	r3, r3, #31
 800152e:	2101      	movs	r1, #1
 8001530:	fa01 f303 	lsl.w	r3, r1, r3
 8001534:	ea42 0103 	orr.w	r1, r2, r3
 8001538:	683b      	ldr	r3, [r7, #0]
 800153a:	681b      	ldr	r3, [r3, #0]
 800153c:	f3c3 0312 	ubfx	r3, r3, #0, #19
 8001540:	2b00      	cmp	r3, #0
 8001542:	d10a      	bne.n	800155a <HAL_ADC_ConfigChannel+0x59a>
 8001544:	683b      	ldr	r3, [r7, #0]
 8001546:	681b      	ldr	r3, [r3, #0]
 8001548:	0e9b      	lsrs	r3, r3, #26
 800154a:	3301      	adds	r3, #1
 800154c:	f003 021f 	and.w	r2, r3, #31
 8001550:	4613      	mov	r3, r2
 8001552:	005b      	lsls	r3, r3, #1
 8001554:	4413      	add	r3, r2
 8001556:	051b      	lsls	r3, r3, #20
 8001558:	e018      	b.n	800158c <HAL_ADC_ConfigChannel+0x5cc>
 800155a:	683b      	ldr	r3, [r7, #0]
 800155c:	681b      	ldr	r3, [r3, #0]
 800155e:	637b      	str	r3, [r7, #52]	@ 0x34
   __ASM volatile ("rbit %0, %1" : "=r" (result) : "r" (value) );
 8001560:	6b7b      	ldr	r3, [r7, #52]	@ 0x34
 8001562:	fa93 f3a3 	rbit	r3, r3
 8001566:	633b      	str	r3, [r7, #48]	@ 0x30
  return result;
 8001568:	6b3b      	ldr	r3, [r7, #48]	@ 0x30
 800156a:	63bb      	str	r3, [r7, #56]	@ 0x38
  if (value == 0U)
 800156c:	6bbb      	ldr	r3, [r7, #56]	@ 0x38
 800156e:	2b00      	cmp	r3, #0
 8001570:	d101      	bne.n	8001576 <HAL_ADC_ConfigChannel+0x5b6>
    return 32U;
 8001572:	2320      	movs	r3, #32
 8001574:	e003      	b.n	800157e <HAL_ADC_ConfigChannel+0x5be>
  return __builtin_clz(value);
 8001576:	6bbb      	ldr	r3, [r7, #56]	@ 0x38
 8001578:	fab3 f383 	clz	r3, r3
 800157c:	b2db      	uxtb	r3, r3
 800157e:	3301      	adds	r3, #1
 8001580:	f003 021f 	and.w	r2, r3, #31
 8001584:	4613      	mov	r3, r2
 8001586:	005b      	lsls	r3, r3, #1
 8001588:	4413      	add	r3, r2
 800158a:	051b      	lsls	r3, r3, #20
        LL_ADC_SetChannelSamplingTime(hadc->Instance,
 800158c:	430b      	orrs	r3, r1
 800158e:	e080      	b.n	8001692 <HAL_ADC_ConfigChannel+0x6d2>
                                      (uint32_t)(__LL_ADC_DECIMAL_NB_TO_CHANNEL(
 8001590:	683b      	ldr	r3, [r7, #0]
 8001592:	681b      	ldr	r3, [r3, #0]
 8001594:	f3c3 0312 	ubfx	r3, r3, #0, #19
 8001598:	2b00      	cmp	r3, #0
 800159a:	d107      	bne.n	80015ac <HAL_ADC_ConfigChannel+0x5ec>
 800159c:	683b      	ldr	r3, [r7, #0]
 800159e:	681b      	ldr	r3, [r3, #0]
 80015a0:	0e9b      	lsrs	r3, r3, #26
 80015a2:	3301      	adds	r3, #1
 80015a4:	069b      	lsls	r3, r3, #26
 80015a6:	f003 42f8 	and.w	r2, r3, #2080374784	@ 0x7c000000
 80015aa:	e015      	b.n	80015d8 <HAL_ADC_ConfigChannel+0x618>
 80015ac:	683b      	ldr	r3, [r7, #0]
 80015ae:	681b      	ldr	r3, [r3, #0]
 80015b0:	62bb      	str	r3, [r7, #40]	@ 0x28
   __ASM volatile ("rbit %0, %1" : "=r" (result) : "r" (value) );
 80015b2:	6abb      	ldr	r3, [r7, #40]	@ 0x28
 80015b4:	fa93 f3a3 	rbit	r3, r3
 80015b8:	627b      	str	r3, [r7, #36]	@ 0x24
  return result;
 80015ba:	6a7b      	ldr	r3, [r7, #36]	@ 0x24
 80015bc:	62fb      	str	r3, [r7, #44]	@ 0x2c
  if (value == 0U)
 80015be:	6afb      	ldr	r3, [r7, #44]	@ 0x2c
 80015c0:	2b00      	cmp	r3, #0
 80015c2:	d101      	bne.n	80015c8 <HAL_ADC_ConfigChannel+0x608>
    return 32U;
 80015c4:	2320      	movs	r3, #32
 80015c6:	e003      	b.n	80015d0 <HAL_ADC_ConfigChannel+0x610>
  return __builtin_clz(value);
 80015c8:	6afb      	ldr	r3, [r7, #44]	@ 0x2c
 80015ca:	fab3 f383 	clz	r3, r3
 80015ce:	b2db      	uxtb	r3, r3
 80015d0:	3301      	adds	r3, #1
 80015d2:	069b      	lsls	r3, r3, #26
 80015d4:	f003 42f8 	and.w	r2, r3, #2080374784	@ 0x7c000000
 80015d8:	683b      	ldr	r3, [r7, #0]
 80015da:	681b      	ldr	r3, [r3, #0]
 80015dc:	f3c3 0312 	ubfx	r3, r3, #0, #19
 80015e0:	2b00      	cmp	r3, #0
 80015e2:	d109      	bne.n	80015f8 <HAL_ADC_ConfigChannel+0x638>
 80015e4:	683b      	ldr	r3, [r7, #0]
 80015e6:	681b      	ldr	r3, [r3, #0]
 80015e8:	0e9b      	lsrs	r3, r3, #26
 80015ea:	3301      	adds	r3, #1
 80015ec:	f003 031f 	and.w	r3, r3, #31
 80015f0:	2101      	movs	r1, #1
 80015f2:	fa01 f303 	lsl.w	r3, r1, r3
 80015f6:	e017      	b.n	8001628 <HAL_ADC_ConfigChannel+0x668>
 80015f8:	683b      	ldr	r3, [r7, #0]
 80015fa:	681b      	ldr	r3, [r3, #0]
 80015fc:	61fb      	str	r3, [r7, #28]
   __ASM volatile ("rbit %0, %1" : "=r" (result) : "r" (value) );
 80015fe:	69fb      	ldr	r3, [r7, #28]
 8001600:	fa93 f3a3 	rbit	r3, r3
 8001604:	61bb      	str	r3, [r7, #24]
  return result;
 8001606:	69bb      	ldr	r3, [r7, #24]
 8001608:	623b      	str	r3, [r7, #32]
  if (value == 0U)
 800160a:	6a3b      	ldr	r3, [r7, #32]
 800160c:	2b00      	cmp	r3, #0
 800160e:	d101      	bne.n	8001614 <HAL_ADC_ConfigChannel+0x654>
    return 32U;
 8001610:	2320      	movs	r3, #32
 8001612:	e003      	b.n	800161c <HAL_ADC_ConfigChannel+0x65c>
  return __builtin_clz(value);
 8001614:	6a3b      	ldr	r3, [r7, #32]
 8001616:	fab3 f383 	clz	r3, r3
 800161a:	b2db      	uxtb	r3, r3
 800161c:	3301      	adds	r3, #1
 800161e:	f003 031f 	and.w	r3, r3, #31
 8001622:	2101      	movs	r1, #1
 8001624:	fa01 f303 	lsl.w	r3, r1, r3
 8001628:	ea42 0103 	orr.w	r1, r2, r3
 800162c:	683b      	ldr	r3, [r7, #0]
 800162e:	681b      	ldr	r3, [r3, #0]
 8001630:	f3c3 0312 	ubfx	r3, r3, #0, #19
 8001634:	2b00      	cmp	r3, #0
 8001636:	d10d      	bne.n	8001654 <HAL_ADC_ConfigChannel+0x694>
 8001638:	683b      	ldr	r3, [r7, #0]
 800163a:	681b      	ldr	r3, [r3, #0]
 800163c:	0e9b      	lsrs	r3, r3, #26
 800163e:	3301      	adds	r3, #1
 8001640:	f003 021f 	and.w	r2, r3, #31
 8001644:	4613      	mov	r3, r2
 8001646:	005b      	lsls	r3, r3, #1
 8001648:	4413      	add	r3, r2
 800164a:	3b1e      	subs	r3, #30
 800164c:	051b      	lsls	r3, r3, #20
 800164e:	f043 7300 	orr.w	r3, r3, #33554432	@ 0x2000000
 8001652:	e01d      	b.n	8001690 <HAL_ADC_ConfigChannel+0x6d0>
 8001654:	683b      	ldr	r3, [r7, #0]
 8001656:	681b      	ldr	r3, [r3, #0]
 8001658:	613b      	str	r3, [r7, #16]
   __ASM volatile ("rbit %0, %1" : "=r" (result) : "r" (value) );
 800165a:	693b      	ldr	r3, [r7, #16]
 800165c:	fa93 f3a3 	rbit	r3, r3
 8001660:	60fb      	str	r3, [r7, #12]
  return result;
 8001662:	68fb      	ldr	r3, [r7, #12]
 8001664:	617b      	str	r3, [r7, #20]
  if (value == 0U)
 8001666:	697b      	ldr	r3, [r7, #20]
 8001668:	2b00      	cmp	r3, #0
 800166a:	d103      	bne.n	8001674 <HAL_ADC_ConfigChannel+0x6b4>
    return 32U;
 800166c:	2320      	movs	r3, #32
 800166e:	e005      	b.n	800167c <HAL_ADC_ConfigChannel+0x6bc>
 8001670:	407f0000 	.word	0x407f0000
  return __builtin_clz(value);
 8001674:	697b      	ldr	r3, [r7, #20]
 8001676:	fab3 f383 	clz	r3, r3
 800167a:	b2db      	uxtb	r3, r3
 800167c:	3301      	adds	r3, #1
 800167e:	f003 021f 	and.w	r2, r3, #31
 8001682:	4613      	mov	r3, r2
 8001684:	005b      	lsls	r3, r3, #1
 8001686:	4413      	add	r3, r2
 8001688:	3b1e      	subs	r3, #30
 800168a:	051b      	lsls	r3, r3, #20
 800168c:	f043 7300 	orr.w	r3, r3, #33554432	@ 0x2000000
        LL_ADC_SetChannelSamplingTime(hadc->Instance,
 8001690:	430b      	orrs	r3, r1
                                                   (__LL_ADC_CHANNEL_TO_DECIMAL_NB((uint32_t)pConfig->Channel)
                                                    + 1UL) & 0x1FUL)),
                                      pConfig->SamplingTime);
 8001692:	683a      	ldr	r2, [r7, #0]
 8001694:	6892      	ldr	r2, [r2, #8]
        LL_ADC_SetChannelSamplingTime(hadc->Instance,
 8001696:	4619      	mov	r1, r3
 8001698:	f7ff f94d 	bl	8000936 <LL_ADC_SetChannelSamplingTime>
    /* If internal channel selected, enable dedicated internal buffers and    */
    /* paths.                                                                 */
    /* Note: these internal measurement paths can be disabled using           */
    /* HAL_ADC_DeInit().                                                      */

    if (__LL_ADC_IS_CHANNEL_INTERNAL(pConfig->Channel))
 800169c:	683b      	ldr	r3, [r7, #0]
 800169e:	681a      	ldr	r2, [r3, #0]
 80016a0:	4b3d      	ldr	r3, [pc, #244]	@ (8001798 <HAL_ADC_ConfigChannel+0x7d8>)
 80016a2:	4013      	ands	r3, r2
 80016a4:	2b00      	cmp	r3, #0
 80016a6:	d06c      	beq.n	8001782 <HAL_ADC_ConfigChannel+0x7c2>
    {
      tmp_config_internal_channel = LL_ADC_GetCommonPathInternalCh(__LL_ADC_COMMON_INSTANCE(hadc->Instance));
 80016a8:	483c      	ldr	r0, [pc, #240]	@ (800179c <HAL_ADC_ConfigChannel+0x7dc>)
 80016aa:	f7ff f88f 	bl	80007cc <LL_ADC_GetCommonPathInternalCh>
 80016ae:	f8c7 00c0 	str.w	r0, [r7, #192]	@ 0xc0

      /* If the requested internal measurement path has already been enabled, */
      /* bypass the configuration processing.                                 */
      if ((pConfig->Channel == ADC_CHANNEL_TEMPSENSOR)
 80016b2:	683b      	ldr	r3, [r7, #0]
 80016b4:	681b      	ldr	r3, [r3, #0]
 80016b6:	4a3a      	ldr	r2, [pc, #232]	@ (80017a0 <HAL_ADC_ConfigChannel+0x7e0>)
 80016b8:	4293      	cmp	r3, r2
 80016ba:	d127      	bne.n	800170c <HAL_ADC_ConfigChannel+0x74c>
          && ((tmp_config_internal_channel & LL_ADC_PATH_INTERNAL_TEMPSENSOR) == 0UL))
 80016bc:	f8d7 30c0 	ldr.w	r3, [r7, #192]	@ 0xc0
 80016c0:	f403 0300 	and.w	r3, r3, #8388608	@ 0x800000
 80016c4:	2b00      	cmp	r3, #0
 80016c6:	d121      	bne.n	800170c <HAL_ADC_ConfigChannel+0x74c>
      {
        if (ADC_TEMPERATURE_SENSOR_INSTANCE(hadc))
 80016c8:	687b      	ldr	r3, [r7, #4]
 80016ca:	681b      	ldr	r3, [r3, #0]
 80016cc:	4a35      	ldr	r2, [pc, #212]	@ (80017a4 <HAL_ADC_ConfigChannel+0x7e4>)
 80016ce:	4293      	cmp	r3, r2
 80016d0:	d157      	bne.n	8001782 <HAL_ADC_ConfigChannel+0x7c2>
        {
          LL_ADC_SetCommonPathInternalCh(__LL_ADC_COMMON_INSTANCE(hadc->Instance),
 80016d2:	f8d7 30c0 	ldr.w	r3, [r7, #192]	@ 0xc0
 80016d6:	f443 0300 	orr.w	r3, r3, #8388608	@ 0x800000
 80016da:	4619      	mov	r1, r3
 80016dc:	482f      	ldr	r0, [pc, #188]	@ (800179c <HAL_ADC_ConfigChannel+0x7dc>)
 80016de:	f7ff f862 	bl	80007a6 <LL_ADC_SetCommonPathInternalCh>
          /* Delay for temperature sensor stabilization time */
          /* Wait loop initialization and execution */
          /* Note: Variable divided by 2 to compensate partially              */
          /*       CPU processing cycles, scaling in us split to not          */
          /*       exceed 32 bits register capacity and handle low frequency. */
          wait_loop_index = ((LL_ADC_DELAY_TEMPSENSOR_STAB_US / 10UL) * ((SystemCoreClock / (100000UL * 2UL)) + 1UL));
 80016e2:	4b31      	ldr	r3, [pc, #196]	@ (80017a8 <HAL_ADC_ConfigChannel+0x7e8>)
 80016e4:	681b      	ldr	r3, [r3, #0]
 80016e6:	099b      	lsrs	r3, r3, #6
 80016e8:	4a30      	ldr	r2, [pc, #192]	@ (80017ac <HAL_ADC_ConfigChannel+0x7ec>)
 80016ea:	fba2 2303 	umull	r2, r3, r2, r3
 80016ee:	099b      	lsrs	r3, r3, #6
 80016f0:	1c5a      	adds	r2, r3, #1
 80016f2:	4613      	mov	r3, r2
 80016f4:	005b      	lsls	r3, r3, #1
 80016f6:	4413      	add	r3, r2
 80016f8:	009b      	lsls	r3, r3, #2
 80016fa:	60bb      	str	r3, [r7, #8]
          while (wait_loop_index != 0UL)
 80016fc:	e002      	b.n	8001704 <HAL_ADC_ConfigChannel+0x744>
          {
            wait_loop_index--;
 80016fe:	68bb      	ldr	r3, [r7, #8]
 8001700:	3b01      	subs	r3, #1
 8001702:	60bb      	str	r3, [r7, #8]
          while (wait_loop_index != 0UL)
 8001704:	68bb      	ldr	r3, [r7, #8]
 8001706:	2b00      	cmp	r3, #0
 8001708:	d1f9      	bne.n	80016fe <HAL_ADC_ConfigChannel+0x73e>
        if (ADC_TEMPERATURE_SENSOR_INSTANCE(hadc))
 800170a:	e03a      	b.n	8001782 <HAL_ADC_ConfigChannel+0x7c2>
          }
        }
      }
      else if ((pConfig->Channel == ADC_CHANNEL_VBAT)
 800170c:	683b      	ldr	r3, [r7, #0]
 800170e:	681b      	ldr	r3, [r3, #0]
 8001710:	4a27      	ldr	r2, [pc, #156]	@ (80017b0 <HAL_ADC_ConfigChannel+0x7f0>)
 8001712:	4293      	cmp	r3, r2
 8001714:	d113      	bne.n	800173e <HAL_ADC_ConfigChannel+0x77e>
               && ((tmp_config_internal_channel & LL_ADC_PATH_INTERNAL_VBAT) == 0UL))
 8001716:	f8d7 30c0 	ldr.w	r3, [r7, #192]	@ 0xc0
 800171a:	f003 7380 	and.w	r3, r3, #16777216	@ 0x1000000
 800171e:	2b00      	cmp	r3, #0
 8001720:	d10d      	bne.n	800173e <HAL_ADC_ConfigChannel+0x77e>
      {
        if (ADC_BATTERY_VOLTAGE_INSTANCE(hadc))
 8001722:	687b      	ldr	r3, [r7, #4]
 8001724:	681b      	ldr	r3, [r3, #0]
 8001726:	4a1f      	ldr	r2, [pc, #124]	@ (80017a4 <HAL_ADC_ConfigChannel+0x7e4>)
 8001728:	4293      	cmp	r3, r2
 800172a:	d12a      	bne.n	8001782 <HAL_ADC_ConfigChannel+0x7c2>
        {
          LL_ADC_SetCommonPathInternalCh(__LL_ADC_COMMON_INSTANCE(hadc->Instance),
 800172c:	f8d7 30c0 	ldr.w	r3, [r7, #192]	@ 0xc0
 8001730:	f043 7380 	orr.w	r3, r3, #16777216	@ 0x1000000
 8001734:	4619      	mov	r1, r3
 8001736:	4819      	ldr	r0, [pc, #100]	@ (800179c <HAL_ADC_ConfigChannel+0x7dc>)
 8001738:	f7ff f835 	bl	80007a6 <LL_ADC_SetCommonPathInternalCh>
        if (ADC_BATTERY_VOLTAGE_INSTANCE(hadc))
 800173c:	e021      	b.n	8001782 <HAL_ADC_ConfigChannel+0x7c2>
                                         LL_ADC_PATH_INTERNAL_VBAT | tmp_config_internal_channel);
        }
      }
      else if ((pConfig->Channel == ADC_CHANNEL_VREFINT)
 800173e:	683b      	ldr	r3, [r7, #0]
 8001740:	681b      	ldr	r3, [r3, #0]
 8001742:	4a1c      	ldr	r2, [pc, #112]	@ (80017b4 <HAL_ADC_ConfigChannel+0x7f4>)
 8001744:	4293      	cmp	r3, r2
 8001746:	d11c      	bne.n	8001782 <HAL_ADC_ConfigChannel+0x7c2>
               && ((tmp_config_internal_channel & LL_ADC_PATH_INTERNAL_VREFINT) == 0UL))
 8001748:	f8d7 30c0 	ldr.w	r3, [r7, #192]	@ 0xc0
 800174c:	f403 0380 	and.w	r3, r3, #4194304	@ 0x400000
 8001750:	2b00      	cmp	r3, #0
 8001752:	d116      	bne.n	8001782 <HAL_ADC_ConfigChannel+0x7c2>
      {
        if (ADC_VREFINT_INSTANCE(hadc))
 8001754:	687b      	ldr	r3, [r7, #4]
 8001756:	681b      	ldr	r3, [r3, #0]
 8001758:	4a12      	ldr	r2, [pc, #72]	@ (80017a4 <HAL_ADC_ConfigChannel+0x7e4>)
 800175a:	4293      	cmp	r3, r2
 800175c:	d111      	bne.n	8001782 <HAL_ADC_ConfigChannel+0x7c2>
        {
          LL_ADC_SetCommonPathInternalCh(__LL_ADC_COMMON_INSTANCE(hadc->Instance),
 800175e:	f8d7 30c0 	ldr.w	r3, [r7, #192]	@ 0xc0
 8001762:	f443 0380 	orr.w	r3, r3, #4194304	@ 0x400000
 8001766:	4619      	mov	r1, r3
 8001768:	480c      	ldr	r0, [pc, #48]	@ (800179c <HAL_ADC_ConfigChannel+0x7dc>)
 800176a:	f7ff f81c 	bl	80007a6 <LL_ADC_SetCommonPathInternalCh>
 800176e:	e008      	b.n	8001782 <HAL_ADC_ConfigChannel+0x7c2>
  /* channel could be done on neither of the channel configuration structure  */
  /* parameters.                                                              */
  else
  {
    /* Update ADC state machine to error */
    SET_BIT(hadc->State, HAL_ADC_STATE_ERROR_CONFIG);
 8001770:	687b      	ldr	r3, [r7, #4]
 8001772:	6d9b      	ldr	r3, [r3, #88]	@ 0x58
 8001774:	f043 0220 	orr.w	r2, r3, #32
 8001778:	687b      	ldr	r3, [r7, #4]
 800177a:	659a      	str	r2, [r3, #88]	@ 0x58

    tmp_hal_status = HAL_ERROR;
 800177c:	2301      	movs	r3, #1
 800177e:	f887 30d7 	strb.w	r3, [r7, #215]	@ 0xd7
  }

  /* Process unlocked */
  __HAL_UNLOCK(hadc);
 8001782:	687b      	ldr	r3, [r7, #4]
 8001784:	2200      	movs	r2, #0
 8001786:	f883 2054 	strb.w	r2, [r3, #84]	@ 0x54

  /* Return function status */
  return tmp_hal_status;
 800178a:	f897 30d7 	ldrb.w	r3, [r7, #215]	@ 0xd7
}
 800178e:	4618      	mov	r0, r3
 8001790:	37d8      	adds	r7, #216	@ 0xd8
 8001792:	46bd      	mov	sp, r7
 8001794:	bd80      	pop	{r7, pc}
 8001796:	bf00      	nop
 8001798:	80080000 	.word	0x80080000
 800179c:	50040300 	.word	0x50040300
 80017a0:	c7520000 	.word	0xc7520000
 80017a4:	50040000 	.word	0x50040000
 80017a8:	20000000 	.word	0x20000000
 80017ac:	053e2d63 	.word	0x053e2d63
 80017b0:	cb840000 	.word	0xcb840000
 80017b4:	80000001 	.word	0x80000001

080017b8 <ADC_Enable>:
  *         and voltage regulator must be enabled (done into HAL_ADC_Init()).
  * @param hadc ADC handle
  * @retval HAL status.
  */
HAL_StatusTypeDef ADC_Enable(ADC_HandleTypeDef *hadc)
{
 80017b8:	b580      	push	{r7, lr}
 80017ba:	b084      	sub	sp, #16
 80017bc:	af00      	add	r7, sp, #0
 80017be:	6078      	str	r0, [r7, #4]
  uint32_t tickstart;
  __IO uint32_t wait_loop_index = 0UL;
 80017c0:	2300      	movs	r3, #0
 80017c2:	60bb      	str	r3, [r7, #8]

  /* ADC enable and wait for ADC ready (in case of ADC is disabled or         */
  /* enabling phase not yet completed: flag ADC ready not yet set).           */
  /* Timeout implemented to not be stuck if ADC cannot be enabled (possible   */
  /* causes: ADC clock not running, ...).                                     */
  if (LL_ADC_IsEnabled(hadc->Instance) == 0UL)
 80017c4:	687b      	ldr	r3, [r7, #4]
 80017c6:	681b      	ldr	r3, [r3, #0]
 80017c8:	4618      	mov	r0, r3
 80017ca:	f7ff f965 	bl	8000a98 <LL_ADC_IsEnabled>
 80017ce:	4603      	mov	r3, r0
 80017d0:	2b00      	cmp	r3, #0
 80017d2:	d169      	bne.n	80018a8 <ADC_Enable+0xf0>
  {
    /* Check if conditions to enable the ADC are fulfilled */
    if ((hadc->Instance->CR & (ADC_CR_ADCAL | ADC_CR_JADSTP | ADC_CR_ADSTP | ADC_CR_JADSTART | ADC_CR_ADSTART
 80017d4:	687b      	ldr	r3, [r7, #4]
 80017d6:	681b      	ldr	r3, [r3, #0]
 80017d8:	689a      	ldr	r2, [r3, #8]
 80017da:	4b36      	ldr	r3, [pc, #216]	@ (80018b4 <ADC_Enable+0xfc>)
 80017dc:	4013      	ands	r3, r2
 80017de:	2b00      	cmp	r3, #0
 80017e0:	d00d      	beq.n	80017fe <ADC_Enable+0x46>
                               | ADC_CR_ADDIS | ADC_CR_ADEN)) != 0UL)
    {
      /* Update ADC state machine to error */
      SET_BIT(hadc->State, HAL_ADC_STATE_ERROR_INTERNAL);
 80017e2:	687b      	ldr	r3, [r7, #4]
 80017e4:	6d9b      	ldr	r3, [r3, #88]	@ 0x58
 80017e6:	f043 0210 	orr.w	r2, r3, #16
 80017ea:	687b      	ldr	r3, [r7, #4]
 80017ec:	659a      	str	r2, [r3, #88]	@ 0x58

      /* Set ADC error code to ADC peripheral internal error */
      SET_BIT(hadc->ErrorCode, HAL_ADC_ERROR_INTERNAL);
 80017ee:	687b      	ldr	r3, [r7, #4]
 80017f0:	6ddb      	ldr	r3, [r3, #92]	@ 0x5c
 80017f2:	f043 0201 	orr.w	r2, r3, #1
 80017f6:	687b      	ldr	r3, [r7, #4]
 80017f8:	65da      	str	r2, [r3, #92]	@ 0x5c

      return HAL_ERROR;
 80017fa:	2301      	movs	r3, #1
 80017fc:	e055      	b.n	80018aa <ADC_Enable+0xf2>
    }

    /* Enable the ADC peripheral */
    LL_ADC_Enable(hadc->Instance);
 80017fe:	687b      	ldr	r3, [r7, #4]
 8001800:	681b      	ldr	r3, [r3, #0]
 8001802:	4618      	mov	r0, r3
 8001804:	f7ff f934 	bl	8000a70 <LL_ADC_Enable>

    if ((LL_ADC_GetCommonPathInternalCh(__LL_ADC_COMMON_INSTANCE(hadc->Instance))
 8001808:	482b      	ldr	r0, [pc, #172]	@ (80018b8 <ADC_Enable+0x100>)
 800180a:	f7fe ffdf 	bl	80007cc <LL_ADC_GetCommonPathInternalCh>
 800180e:	4603      	mov	r3, r0
         & LL_ADC_PATH_INTERNAL_TEMPSENSOR) != 0UL)
 8001810:	f403 0300 	and.w	r3, r3, #8388608	@ 0x800000
    if ((LL_ADC_GetCommonPathInternalCh(__LL_ADC_COMMON_INSTANCE(hadc->Instance))
 8001814:	2b00      	cmp	r3, #0
 8001816:	d013      	beq.n	8001840 <ADC_Enable+0x88>

      /* Wait loop initialization and execution */
      /* Note: Variable divided by 2 to compensate partially              */
      /*       CPU processing cycles, scaling in us split to not          */
      /*       exceed 32 bits register capacity and handle low frequency. */
      wait_loop_index = ((LL_ADC_DELAY_TEMPSENSOR_STAB_US / 10UL) * ((SystemCoreClock / (100000UL * 2UL)) + 1UL));
 8001818:	4b28      	ldr	r3, [pc, #160]	@ (80018bc <ADC_Enable+0x104>)
 800181a:	681b      	ldr	r3, [r3, #0]
 800181c:	099b      	lsrs	r3, r3, #6
 800181e:	4a28      	ldr	r2, [pc, #160]	@ (80018c0 <ADC_Enable+0x108>)
 8001820:	fba2 2303 	umull	r2, r3, r2, r3
 8001824:	099b      	lsrs	r3, r3, #6
 8001826:	1c5a      	adds	r2, r3, #1
 8001828:	4613      	mov	r3, r2
 800182a:	005b      	lsls	r3, r3, #1
 800182c:	4413      	add	r3, r2
 800182e:	009b      	lsls	r3, r3, #2
 8001830:	60bb      	str	r3, [r7, #8]
      while (wait_loop_index != 0UL)
 8001832:	e002      	b.n	800183a <ADC_Enable+0x82>
      {
        wait_loop_index--;
 8001834:	68bb      	ldr	r3, [r7, #8]
 8001836:	3b01      	subs	r3, #1
 8001838:	60bb      	str	r3, [r7, #8]
      while (wait_loop_index != 0UL)
 800183a:	68bb      	ldr	r3, [r7, #8]
 800183c:	2b00      	cmp	r3, #0
 800183e:	d1f9      	bne.n	8001834 <ADC_Enable+0x7c>
      }
    }

    /* Wait for ADC effectively enabled */
    tickstart = HAL_GetTick();
 8001840:	f7fe ff92 	bl	8000768 <HAL_GetTick>
 8001844:	60f8      	str	r0, [r7, #12]

    while (__HAL_ADC_GET_FLAG(hadc, ADC_FLAG_RDY) == 0UL)
 8001846:	e028      	b.n	800189a <ADC_Enable+0xe2>
          The workaround is to continue setting ADEN until ADRDY is becomes 1.
          Additionally, ADC_ENABLE_TIMEOUT is defined to encompass this
          4 ADC clock cycle duration */
      /* Note: Test of ADC enabled required due to hardware constraint to     */
      /*       not enable ADC if already enabled.                             */
      if (LL_ADC_IsEnabled(hadc->Instance) == 0UL)
 8001848:	687b      	ldr	r3, [r7, #4]
 800184a:	681b      	ldr	r3, [r3, #0]
 800184c:	4618      	mov	r0, r3
 800184e:	f7ff f923 	bl	8000a98 <LL_ADC_IsEnabled>
 8001852:	4603      	mov	r3, r0
 8001854:	2b00      	cmp	r3, #0
 8001856:	d104      	bne.n	8001862 <ADC_Enable+0xaa>
      {
        LL_ADC_Enable(hadc->Instance);
 8001858:	687b      	ldr	r3, [r7, #4]
 800185a:	681b      	ldr	r3, [r3, #0]
 800185c:	4618      	mov	r0, r3
 800185e:	f7ff f907 	bl	8000a70 <LL_ADC_Enable>
      }

      if ((HAL_GetTick() - tickstart) > ADC_ENABLE_TIMEOUT)
 8001862:	f7fe ff81 	bl	8000768 <HAL_GetTick>
 8001866:	4602      	mov	r2, r0
 8001868:	68fb      	ldr	r3, [r7, #12]
 800186a:	1ad3      	subs	r3, r2, r3
 800186c:	2b02      	cmp	r3, #2
 800186e:	d914      	bls.n	800189a <ADC_Enable+0xe2>
      {
        /* New check to avoid false timeout detection in case of preemption */
        if (__HAL_ADC_GET_FLAG(hadc, ADC_FLAG_RDY) == 0UL)
 8001870:	687b      	ldr	r3, [r7, #4]
 8001872:	681b      	ldr	r3, [r3, #0]
 8001874:	681b      	ldr	r3, [r3, #0]
 8001876:	f003 0301 	and.w	r3, r3, #1
 800187a:	2b01      	cmp	r3, #1
 800187c:	d00d      	beq.n	800189a <ADC_Enable+0xe2>
        {
          /* Update ADC state machine to error */
          SET_BIT(hadc->State, HAL_ADC_STATE_ERROR_INTERNAL);
 800187e:	687b      	ldr	r3, [r7, #4]
 8001880:	6d9b      	ldr	r3, [r3, #88]	@ 0x58
 8001882:	f043 0210 	orr.w	r2, r3, #16
 8001886:	687b      	ldr	r3, [r7, #4]
 8001888:	659a      	str	r2, [r3, #88]	@ 0x58

          /* Set ADC error code to ADC peripheral internal error */
          SET_BIT(hadc->ErrorCode, HAL_ADC_ERROR_INTERNAL);
 800188a:	687b      	ldr	r3, [r7, #4]
 800188c:	6ddb      	ldr	r3, [r3, #92]	@ 0x5c
 800188e:	f043 0201 	orr.w	r2, r3, #1
 8001892:	687b      	ldr	r3, [r7, #4]
 8001894:	65da      	str	r2, [r3, #92]	@ 0x5c

          return HAL_ERROR;
 8001896:	2301      	movs	r3, #1
 8001898:	e007      	b.n	80018aa <ADC_Enable+0xf2>
    while (__HAL_ADC_GET_FLAG(hadc, ADC_FLAG_RDY) == 0UL)
 800189a:	687b      	ldr	r3, [r7, #4]
 800189c:	681b      	ldr	r3, [r3, #0]
 800189e:	681b      	ldr	r3, [r3, #0]
 80018a0:	f003 0301 	and.w	r3, r3, #1
 80018a4:	2b01      	cmp	r3, #1
 80018a6:	d1cf      	bne.n	8001848 <ADC_Enable+0x90>
      }
    }
  }

  /* Return HAL status */
  return HAL_OK;
 80018a8:	2300      	movs	r3, #0
}
 80018aa:	4618      	mov	r0, r3
 80018ac:	3710      	adds	r7, #16
 80018ae:	46bd      	mov	sp, r7
 80018b0:	bd80      	pop	{r7, pc}
 80018b2:	bf00      	nop
 80018b4:	8000003f 	.word	0x8000003f
 80018b8:	50040300 	.word	0x50040300
 80018bc:	20000000 	.word	0x20000000
 80018c0:	053e2d63 	.word	0x053e2d63

080018c4 <__NVIC_SetPriorityGrouping>:
           In case of a conflict between priority grouping and available
           priority bits (__NVIC_PRIO_BITS), the smallest possible priority group is set.
  \param [in]      PriorityGroup  Priority grouping field.
 */
__STATIC_INLINE void __NVIC_SetPriorityGrouping(uint32_t PriorityGroup)
{
 80018c4:	b480      	push	{r7}
 80018c6:	b085      	sub	sp, #20
 80018c8:	af00      	add	r7, sp, #0
 80018ca:	6078      	str	r0, [r7, #4]
  uint32_t reg_value;
  uint32_t PriorityGroupTmp = (PriorityGroup & (uint32_t)0x07UL);             /* only values 0..7 are used          */
 80018cc:	687b      	ldr	r3, [r7, #4]
 80018ce:	f003 0307 	and.w	r3, r3, #7
 80018d2:	60fb      	str	r3, [r7, #12]

  reg_value  =  SCB->AIRCR;                                                   /* read old register configuration    */
 80018d4:	4b0c      	ldr	r3, [pc, #48]	@ (8001908 <__NVIC_SetPriorityGrouping+0x44>)
 80018d6:	68db      	ldr	r3, [r3, #12]
 80018d8:	60bb      	str	r3, [r7, #8]
  reg_value &= ~((uint32_t)(SCB_AIRCR_VECTKEY_Msk | SCB_AIRCR_PRIGROUP_Msk)); /* clear bits to change               */
 80018da:	68ba      	ldr	r2, [r7, #8]
 80018dc:	f64f 03ff 	movw	r3, #63743	@ 0xf8ff
 80018e0:	4013      	ands	r3, r2
 80018e2:	60bb      	str	r3, [r7, #8]
  reg_value  =  (reg_value                                   |
                ((uint32_t)0x5FAUL << SCB_AIRCR_VECTKEY_Pos) |
                (PriorityGroupTmp << SCB_AIRCR_PRIGROUP_Pos)  );              /* Insert write key and priority group */
 80018e4:	68fb      	ldr	r3, [r7, #12]
 80018e6:	021a      	lsls	r2, r3, #8
                ((uint32_t)0x5FAUL << SCB_AIRCR_VECTKEY_Pos) |
 80018e8:	68bb      	ldr	r3, [r7, #8]
 80018ea:	4313      	orrs	r3, r2
  reg_value  =  (reg_value                                   |
 80018ec:	f043 63bf 	orr.w	r3, r3, #100139008	@ 0x5f80000
 80018f0:	f443 3300 	orr.w	r3, r3, #131072	@ 0x20000
 80018f4:	60bb      	str	r3, [r7, #8]
  SCB->AIRCR =  reg_value;
 80018f6:	4a04      	ldr	r2, [pc, #16]	@ (8001908 <__NVIC_SetPriorityGrouping+0x44>)
 80018f8:	68bb      	ldr	r3, [r7, #8]
 80018fa:	60d3      	str	r3, [r2, #12]
}
 80018fc:	bf00      	nop
 80018fe:	3714      	adds	r7, #20
 8001900:	46bd      	mov	sp, r7
 8001902:	f85d 7b04 	ldr.w	r7, [sp], #4
 8001906:	4770      	bx	lr
 8001908:	e000ed00 	.word	0xe000ed00

0800190c <__NVIC_GetPriorityGrouping>:
  \brief   Get Priority Grouping
  \details Reads the priority grouping field from the NVIC Interrupt Controller.
  \return                Priority grouping field (SCB->AIRCR [10:8] PRIGROUP field).
 */
__STATIC_INLINE uint32_t __NVIC_GetPriorityGrouping(void)
{
 800190c:	b480      	push	{r7}
 800190e:	af00      	add	r7, sp, #0
  return ((uint32_t)((SCB->AIRCR & SCB_AIRCR_PRIGROUP_Msk) >> SCB_AIRCR_PRIGROUP_Pos));
 8001910:	4b04      	ldr	r3, [pc, #16]	@ (8001924 <__NVIC_GetPriorityGrouping+0x18>)
 8001912:	68db      	ldr	r3, [r3, #12]
 8001914:	0a1b      	lsrs	r3, r3, #8
 8001916:	f003 0307 	and.w	r3, r3, #7
}
 800191a:	4618      	mov	r0, r3
 800191c:	46bd      	mov	sp, r7
 800191e:	f85d 7b04 	ldr.w	r7, [sp], #4
 8001922:	4770      	bx	lr
 8001924:	e000ed00 	.word	0xe000ed00

08001928 <__NVIC_EnableIRQ>:
  \details Enables a device specific interrupt in the NVIC interrupt controller.
  \param [in]      IRQn  Device specific interrupt number.
  \note    IRQn must not be negative.
 */
__STATIC_INLINE void __NVIC_EnableIRQ(IRQn_Type IRQn)
{
 8001928:	b480      	push	{r7}
 800192a:	b083      	sub	sp, #12
 800192c:	af00      	add	r7, sp, #0
 800192e:	4603      	mov	r3, r0
 8001930:	71fb      	strb	r3, [r7, #7]
  if ((int32_t)(IRQn) >= 0)
 8001932:	f997 3007 	ldrsb.w	r3, [r7, #7]
 8001936:	2b00      	cmp	r3, #0
 8001938:	db0b      	blt.n	8001952 <__NVIC_EnableIRQ+0x2a>
  {
    __COMPILER_BARRIER();
    NVIC->ISER[(((uint32_t)IRQn) >> 5UL)] = (uint32_t)(1UL << (((uint32_t)IRQn) & 0x1FUL));
 800193a:	79fb      	ldrb	r3, [r7, #7]
 800193c:	f003 021f 	and.w	r2, r3, #31
 8001940:	4907      	ldr	r1, [pc, #28]	@ (8001960 <__NVIC_EnableIRQ+0x38>)
 8001942:	f997 3007 	ldrsb.w	r3, [r7, #7]
 8001946:	095b      	lsrs	r3, r3, #5
 8001948:	2001      	movs	r0, #1
 800194a:	fa00 f202 	lsl.w	r2, r0, r2
 800194e:	f841 2023 	str.w	r2, [r1, r3, lsl #2]
    __COMPILER_BARRIER();
  }
}
 8001952:	bf00      	nop
 8001954:	370c      	adds	r7, #12
 8001956:	46bd      	mov	sp, r7
 8001958:	f85d 7b04 	ldr.w	r7, [sp], #4
 800195c:	4770      	bx	lr
 800195e:	bf00      	nop
 8001960:	e000e100 	.word	0xe000e100

08001964 <__NVIC_SetPriority>:
  \param [in]      IRQn  Interrupt number.
  \param [in]  priority  Priority to set.
  \note    The priority cannot be set for every processor exception.
 */
__STATIC_INLINE void __NVIC_SetPriority(IRQn_Type IRQn, uint32_t priority)
{
 8001964:	b480      	push	{r7}
 8001966:	b083      	sub	sp, #12
 8001968:	af00      	add	r7, sp, #0
 800196a:	4603      	mov	r3, r0
 800196c:	6039      	str	r1, [r7, #0]
 800196e:	71fb      	strb	r3, [r7, #7]
  if ((int32_t)(IRQn) >= 0)
 8001970:	f997 3007 	ldrsb.w	r3, [r7, #7]
 8001974:	2b00      	cmp	r3, #0
 8001976:	db0a      	blt.n	800198e <__NVIC_SetPriority+0x2a>
  {
    NVIC->IP[((uint32_t)IRQn)]               = (uint8_t)((priority << (8U - __NVIC_PRIO_BITS)) & (uint32_t)0xFFUL);
 8001978:	683b      	ldr	r3, [r7, #0]
 800197a:	b2da      	uxtb	r2, r3
 800197c:	490c      	ldr	r1, [pc, #48]	@ (80019b0 <__NVIC_SetPriority+0x4c>)
 800197e:	f997 3007 	ldrsb.w	r3, [r7, #7]
 8001982:	0112      	lsls	r2, r2, #4
 8001984:	b2d2      	uxtb	r2, r2
 8001986:	440b      	add	r3, r1
 8001988:	f883 2300 	strb.w	r2, [r3, #768]	@ 0x300
  }
  else
  {
    SCB->SHP[(((uint32_t)IRQn) & 0xFUL)-4UL] = (uint8_t)((priority << (8U - __NVIC_PRIO_BITS)) & (uint32_t)0xFFUL);
  }
}
 800198c:	e00a      	b.n	80019a4 <__NVIC_SetPriority+0x40>
    SCB->SHP[(((uint32_t)IRQn) & 0xFUL)-4UL] = (uint8_t)((priority << (8U - __NVIC_PRIO_BITS)) & (uint32_t)0xFFUL);
 800198e:	683b      	ldr	r3, [r7, #0]
 8001990:	b2da      	uxtb	r2, r3
 8001992:	4908      	ldr	r1, [pc, #32]	@ (80019b4 <__NVIC_SetPriority+0x50>)
 8001994:	79fb      	ldrb	r3, [r7, #7]
 8001996:	f003 030f 	and.w	r3, r3, #15
 800199a:	3b04      	subs	r3, #4
 800199c:	0112      	lsls	r2, r2, #4
 800199e:	b2d2      	uxtb	r2, r2
 80019a0:	440b      	add	r3, r1
 80019a2:	761a      	strb	r2, [r3, #24]
}
 80019a4:	bf00      	nop
 80019a6:	370c      	adds	r7, #12
 80019a8:	46bd      	mov	sp, r7
 80019aa:	f85d 7b04 	ldr.w	r7, [sp], #4
 80019ae:	4770      	bx	lr
 80019b0:	e000e100 	.word	0xe000e100
 80019b4:	e000ed00 	.word	0xe000ed00

080019b8 <NVIC_EncodePriority>:
  \param [in]   PreemptPriority  Preemptive priority value (starting from 0).
  \param [in]       SubPriority  Subpriority value (starting from 0).
  \return                        Encoded priority. Value can be used in the function \ref NVIC_SetPriority().
 */
__STATIC_INLINE uint32_t NVIC_EncodePriority (uint32_t PriorityGroup, uint32_t PreemptPriority, uint32_t SubPriority)
{
 80019b8:	b480      	push	{r7}
 80019ba:	b089      	sub	sp, #36	@ 0x24
 80019bc:	af00      	add	r7, sp, #0
 80019be:	60f8      	str	r0, [r7, #12]
 80019c0:	60b9      	str	r1, [r7, #8]
 80019c2:	607a      	str	r2, [r7, #4]
  uint32_t PriorityGroupTmp = (PriorityGroup & (uint32_t)0x07UL);   /* only values 0..7 are used          */
 80019c4:	68fb      	ldr	r3, [r7, #12]
 80019c6:	f003 0307 	and.w	r3, r3, #7
 80019ca:	61fb      	str	r3, [r7, #28]
  uint32_t PreemptPriorityBits;
  uint32_t SubPriorityBits;

  PreemptPriorityBits = ((7UL - PriorityGroupTmp) > (uint32_t)(__NVIC_PRIO_BITS)) ? (uint32_t)(__NVIC_PRIO_BITS) : (uint32_t)(7UL - PriorityGroupTmp);
 80019cc:	69fb      	ldr	r3, [r7, #28]
 80019ce:	f1c3 0307 	rsb	r3, r3, #7
 80019d2:	2b04      	cmp	r3, #4
 80019d4:	bf28      	it	cs
 80019d6:	2304      	movcs	r3, #4
 80019d8:	61bb      	str	r3, [r7, #24]
  SubPriorityBits     = ((PriorityGroupTmp + (uint32_t)(__NVIC_PRIO_BITS)) < (uint32_t)7UL) ? (uint32_t)0UL : (uint32_t)((PriorityGroupTmp - 7UL) + (uint32_t)(__NVIC_PRIO_BITS));
 80019da:	69fb      	ldr	r3, [r7, #28]
 80019dc:	3304      	adds	r3, #4
 80019de:	2b06      	cmp	r3, #6
 80019e0:	d902      	bls.n	80019e8 <NVIC_EncodePriority+0x30>
 80019e2:	69fb      	ldr	r3, [r7, #28]
 80019e4:	3b03      	subs	r3, #3
 80019e6:	e000      	b.n	80019ea <NVIC_EncodePriority+0x32>
 80019e8:	2300      	movs	r3, #0
 80019ea:	617b      	str	r3, [r7, #20]

  return (
           ((PreemptPriority & (uint32_t)((1UL << (PreemptPriorityBits)) - 1UL)) << SubPriorityBits) |
 80019ec:	f04f 32ff 	mov.w	r2, #4294967295
 80019f0:	69bb      	ldr	r3, [r7, #24]
 80019f2:	fa02 f303 	lsl.w	r3, r2, r3
 80019f6:	43da      	mvns	r2, r3
 80019f8:	68bb      	ldr	r3, [r7, #8]
 80019fa:	401a      	ands	r2, r3
 80019fc:	697b      	ldr	r3, [r7, #20]
 80019fe:	409a      	lsls	r2, r3
           ((SubPriority     & (uint32_t)((1UL << (SubPriorityBits    )) - 1UL)))
 8001a00:	f04f 31ff 	mov.w	r1, #4294967295
 8001a04:	697b      	ldr	r3, [r7, #20]
 8001a06:	fa01 f303 	lsl.w	r3, r1, r3
 8001a0a:	43d9      	mvns	r1, r3
 8001a0c:	687b      	ldr	r3, [r7, #4]
 8001a0e:	400b      	ands	r3, r1
           ((PreemptPriority & (uint32_t)((1UL << (PreemptPriorityBits)) - 1UL)) << SubPriorityBits) |
 8001a10:	4313      	orrs	r3, r2
         );
}
 8001a12:	4618      	mov	r0, r3
 8001a14:	3724      	adds	r7, #36	@ 0x24
 8001a16:	46bd      	mov	sp, r7
 8001a18:	f85d 7b04 	ldr.w	r7, [sp], #4
 8001a1c:	4770      	bx	lr
	...

08001a20 <SysTick_Config>:
  \note    When the variable <b>__Vendor_SysTickConfig</b> is set to 1, then the
           function <b>SysTick_Config</b> is not included. In this case, the file <b><i>device</i>.h</b>
           must contain a vendor-specific implementation of this function.
 */
__STATIC_INLINE uint32_t SysTick_Config(uint32_t ticks)
{
 8001a20:	b580      	push	{r7, lr}
 8001a22:	b082      	sub	sp, #8
 8001a24:	af00      	add	r7, sp, #0
 8001a26:	6078      	str	r0, [r7, #4]
  if ((ticks - 1UL) > SysTick_LOAD_RELOAD_Msk)
 8001a28:	687b      	ldr	r3, [r7, #4]
 8001a2a:	3b01      	subs	r3, #1
 8001a2c:	f1b3 7f80 	cmp.w	r3, #16777216	@ 0x1000000
 8001a30:	d301      	bcc.n	8001a36 <SysTick_Config+0x16>
  {
    return (1UL);                                                   /* Reload value impossible */
 8001a32:	2301      	movs	r3, #1
 8001a34:	e00f      	b.n	8001a56 <SysTick_Config+0x36>
  }

  SysTick->LOAD  = (uint32_t)(ticks - 1UL);                         /* set reload register */
 8001a36:	4a0a      	ldr	r2, [pc, #40]	@ (8001a60 <SysTick_Config+0x40>)
 8001a38:	687b      	ldr	r3, [r7, #4]
 8001a3a:	3b01      	subs	r3, #1
 8001a3c:	6053      	str	r3, [r2, #4]
  NVIC_SetPriority (SysTick_IRQn, (1UL << __NVIC_PRIO_BITS) - 1UL); /* set Priority for Systick Interrupt */
 8001a3e:	210f      	movs	r1, #15
 8001a40:	f04f 30ff 	mov.w	r0, #4294967295
 8001a44:	f7ff ff8e 	bl	8001964 <__NVIC_SetPriority>
  SysTick->VAL   = 0UL;                                             /* Load the SysTick Counter Value */
 8001a48:	4b05      	ldr	r3, [pc, #20]	@ (8001a60 <SysTick_Config+0x40>)
 8001a4a:	2200      	movs	r2, #0
 8001a4c:	609a      	str	r2, [r3, #8]
  SysTick->CTRL  = SysTick_CTRL_CLKSOURCE_Msk |
 8001a4e:	4b04      	ldr	r3, [pc, #16]	@ (8001a60 <SysTick_Config+0x40>)
 8001a50:	2207      	movs	r2, #7
 8001a52:	601a      	str	r2, [r3, #0]
                   SysTick_CTRL_TICKINT_Msk   |
                   SysTick_CTRL_ENABLE_Msk;                         /* Enable SysTick IRQ and SysTick Timer */
  return (0UL);                                                     /* Function successful */
 8001a54:	2300      	movs	r3, #0
}
 8001a56:	4618      	mov	r0, r3
 8001a58:	3708      	adds	r7, #8
 8001a5a:	46bd      	mov	sp, r7
 8001a5c:	bd80      	pop	{r7, pc}
 8001a5e:	bf00      	nop
 8001a60:	e000e010 	.word	0xe000e010

08001a64 <HAL_NVIC_SetPriorityGrouping>:
  * @note   When the NVIC_PriorityGroup_0 is selected, IRQ pre-emption is no more possible.
  *         The pending IRQ priority will be managed only by the subpriority.
  * @retval None
  */
void HAL_NVIC_SetPriorityGrouping(uint32_t PriorityGroup)
{
 8001a64:	b580      	push	{r7, lr}
 8001a66:	b082      	sub	sp, #8
 8001a68:	af00      	add	r7, sp, #0
 8001a6a:	6078      	str	r0, [r7, #4]
  /* Check the parameters */
  assert_param(IS_NVIC_PRIORITY_GROUP(PriorityGroup));

  /* Set the PRIGROUP[10:8] bits according to the PriorityGroup parameter value */
  NVIC_SetPriorityGrouping(PriorityGroup);
 8001a6c:	6878      	ldr	r0, [r7, #4]
 8001a6e:	f7ff ff29 	bl	80018c4 <__NVIC_SetPriorityGrouping>
}
 8001a72:	bf00      	nop
 8001a74:	3708      	adds	r7, #8
 8001a76:	46bd      	mov	sp, r7
 8001a78:	bd80      	pop	{r7, pc}

08001a7a <HAL_NVIC_SetPriority>:
  *         This parameter can be a value between 0 and 15
  *         A lower priority value indicates a higher priority.
  * @retval None
  */
void HAL_NVIC_SetPriority(IRQn_Type IRQn, uint32_t PreemptPriority, uint32_t SubPriority)
{
 8001a7a:	b580      	push	{r7, lr}
 8001a7c:	b086      	sub	sp, #24
 8001a7e:	af00      	add	r7, sp, #0
 8001a80:	4603      	mov	r3, r0
 8001a82:	60b9      	str	r1, [r7, #8]
 8001a84:	607a      	str	r2, [r7, #4]
 8001a86:	73fb      	strb	r3, [r7, #15]
  uint32_t prioritygroup = 0x00;
 8001a88:	2300      	movs	r3, #0
 8001a8a:	617b      	str	r3, [r7, #20]

  /* Check the parameters */
  assert_param(IS_NVIC_SUB_PRIORITY(SubPriority));
  assert_param(IS_NVIC_PREEMPTION_PRIORITY(PreemptPriority));

  prioritygroup = NVIC_GetPriorityGrouping();
 8001a8c:	f7ff ff3e 	bl	800190c <__NVIC_GetPriorityGrouping>
 8001a90:	6178      	str	r0, [r7, #20]

  NVIC_SetPriority(IRQn, NVIC_EncodePriority(prioritygroup, PreemptPriority, SubPriority));
 8001a92:	687a      	ldr	r2, [r7, #4]
 8001a94:	68b9      	ldr	r1, [r7, #8]
 8001a96:	6978      	ldr	r0, [r7, #20]
 8001a98:	f7ff ff8e 	bl	80019b8 <NVIC_EncodePriority>
 8001a9c:	4602      	mov	r2, r0
 8001a9e:	f997 300f 	ldrsb.w	r3, [r7, #15]
 8001aa2:	4611      	mov	r1, r2
 8001aa4:	4618      	mov	r0, r3
 8001aa6:	f7ff ff5d 	bl	8001964 <__NVIC_SetPriority>
}
 8001aaa:	bf00      	nop
 8001aac:	3718      	adds	r7, #24
 8001aae:	46bd      	mov	sp, r7
 8001ab0:	bd80      	pop	{r7, pc}

08001ab2 <HAL_NVIC_EnableIRQ>:
  *         This parameter can be an enumerator of IRQn_Type enumeration
  *         (For the complete STM32 Devices IRQ Channels list, please refer to the appropriate CMSIS device file (stm32l4xxxx.h))
  * @retval None
  */
void HAL_NVIC_EnableIRQ(IRQn_Type IRQn)
{
 8001ab2:	b580      	push	{r7, lr}
 8001ab4:	b082      	sub	sp, #8
 8001ab6:	af00      	add	r7, sp, #0
 8001ab8:	4603      	mov	r3, r0
 8001aba:	71fb      	strb	r3, [r7, #7]
  /* Check the parameters */
  assert_param(IS_NVIC_DEVICE_IRQ(IRQn));
  
  /* Enable interrupt */
  NVIC_EnableIRQ(IRQn);
 8001abc:	f997 3007 	ldrsb.w	r3, [r7, #7]
 8001ac0:	4618      	mov	r0, r3
 8001ac2:	f7ff ff31 	bl	8001928 <__NVIC_EnableIRQ>
}
 8001ac6:	bf00      	nop
 8001ac8:	3708      	adds	r7, #8
 8001aca:	46bd      	mov	sp, r7
 8001acc:	bd80      	pop	{r7, pc}

08001ace <HAL_SYSTICK_Config>:
  * @param  TicksNumb: Specifies the ticks Number of ticks between two interrupts.
  * @retval status:  - 0  Function succeeded.
  *                  - 1  Function failed.
  */
uint32_t HAL_SYSTICK_Config(uint32_t TicksNumb)
{
 8001ace:	b580      	push	{r7, lr}
 8001ad0:	b082      	sub	sp, #8
 8001ad2:	af00      	add	r7, sp, #0
 8001ad4:	6078      	str	r0, [r7, #4]
   return SysTick_Config(TicksNumb);
 8001ad6:	6878      	ldr	r0, [r7, #4]
 8001ad8:	f7ff ffa2 	bl	8001a20 <SysTick_Config>
 8001adc:	4603      	mov	r3, r0
}
 8001ade:	4618      	mov	r0, r3
 8001ae0:	3708      	adds	r7, #8
 8001ae2:	46bd      	mov	sp, r7
 8001ae4:	bd80      	pop	{r7, pc}
	...

08001ae8 <HAL_GPIO_Init>:
  * @param  GPIO_Init pointer to a GPIO_InitTypeDef structure that contains
  *         the configuration information for the specified GPIO peripheral.
  * @retval None
  */
void HAL_GPIO_Init(GPIO_TypeDef  *GPIOx, GPIO_InitTypeDef *GPIO_Init)
{
 8001ae8:	b480      	push	{r7}
 8001aea:	b087      	sub	sp, #28
 8001aec:	af00      	add	r7, sp, #0
 8001aee:	6078      	str	r0, [r7, #4]
 8001af0:	6039      	str	r1, [r7, #0]
  uint32_t position = 0x00u;
 8001af2:	2300      	movs	r3, #0
 8001af4:	617b      	str	r3, [r7, #20]
  assert_param(IS_GPIO_ALL_INSTANCE(GPIOx));
  assert_param(IS_GPIO_PIN(GPIO_Init->Pin));
  assert_param(IS_GPIO_MODE(GPIO_Init->Mode));

  /* Configure the port pins */
  while (((GPIO_Init->Pin) >> position) != 0x00u)
 8001af6:	e166      	b.n	8001dc6 <HAL_GPIO_Init+0x2de>
  {
    /* Get current io position */
    iocurrent = (GPIO_Init->Pin) & (1uL << position);
 8001af8:	683b      	ldr	r3, [r7, #0]
 8001afa:	681a      	ldr	r2, [r3, #0]
 8001afc:	2101      	movs	r1, #1
 8001afe:	697b      	ldr	r3, [r7, #20]
 8001b00:	fa01 f303 	lsl.w	r3, r1, r3
 8001b04:	4013      	ands	r3, r2
 8001b06:	60fb      	str	r3, [r7, #12]

    if (iocurrent != 0x00u)
 8001b08:	68fb      	ldr	r3, [r7, #12]
 8001b0a:	2b00      	cmp	r3, #0
 8001b0c:	f000 8158 	beq.w	8001dc0 <HAL_GPIO_Init+0x2d8>
    {
      /*--------------------- GPIO Mode Configuration ------------------------*/
      /* In case of Output or Alternate function mode selection */
      if (((GPIO_Init->Mode & GPIO_MODE) == MODE_OUTPUT) || ((GPIO_Init->Mode & GPIO_MODE) == MODE_AF))
 8001b10:	683b      	ldr	r3, [r7, #0]
 8001b12:	685b      	ldr	r3, [r3, #4]
 8001b14:	f003 0303 	and.w	r3, r3, #3
 8001b18:	2b01      	cmp	r3, #1
 8001b1a:	d005      	beq.n	8001b28 <HAL_GPIO_Init+0x40>
 8001b1c:	683b      	ldr	r3, [r7, #0]
 8001b1e:	685b      	ldr	r3, [r3, #4]
 8001b20:	f003 0303 	and.w	r3, r3, #3
 8001b24:	2b02      	cmp	r3, #2
 8001b26:	d130      	bne.n	8001b8a <HAL_GPIO_Init+0xa2>
      {
        /* Check the Speed parameter */
        assert_param(IS_GPIO_SPEED(GPIO_Init->Speed));

        /* Configure the IO Speed */
        temp = GPIOx->OSPEEDR;
 8001b28:	687b      	ldr	r3, [r7, #4]
 8001b2a:	689b      	ldr	r3, [r3, #8]
 8001b2c:	613b      	str	r3, [r7, #16]
        temp &= ~(GPIO_OSPEEDR_OSPEED0 << (position * 2u));
 8001b2e:	697b      	ldr	r3, [r7, #20]
 8001b30:	005b      	lsls	r3, r3, #1
 8001b32:	2203      	movs	r2, #3
 8001b34:	fa02 f303 	lsl.w	r3, r2, r3
 8001b38:	43db      	mvns	r3, r3
 8001b3a:	693a      	ldr	r2, [r7, #16]
 8001b3c:	4013      	ands	r3, r2
 8001b3e:	613b      	str	r3, [r7, #16]
        temp |= (GPIO_Init->Speed << (position * 2u));
 8001b40:	683b      	ldr	r3, [r7, #0]
 8001b42:	68da      	ldr	r2, [r3, #12]
 8001b44:	697b      	ldr	r3, [r7, #20]
 8001b46:	005b      	lsls	r3, r3, #1
 8001b48:	fa02 f303 	lsl.w	r3, r2, r3
 8001b4c:	693a      	ldr	r2, [r7, #16]
 8001b4e:	4313      	orrs	r3, r2
 8001b50:	613b      	str	r3, [r7, #16]
        GPIOx->OSPEEDR = temp;
 8001b52:	687b      	ldr	r3, [r7, #4]
 8001b54:	693a      	ldr	r2, [r7, #16]
 8001b56:	609a      	str	r2, [r3, #8]

        /* Configure the IO Output Type */
        temp = GPIOx->OTYPER;
 8001b58:	687b      	ldr	r3, [r7, #4]
 8001b5a:	685b      	ldr	r3, [r3, #4]
 8001b5c:	613b      	str	r3, [r7, #16]
        temp &= ~(GPIO_OTYPER_OT0 << position) ;
 8001b5e:	2201      	movs	r2, #1
 8001b60:	697b      	ldr	r3, [r7, #20]
 8001b62:	fa02 f303 	lsl.w	r3, r2, r3
 8001b66:	43db      	mvns	r3, r3
 8001b68:	693a      	ldr	r2, [r7, #16]
 8001b6a:	4013      	ands	r3, r2
 8001b6c:	613b      	str	r3, [r7, #16]
        temp |= (((GPIO_Init->Mode & OUTPUT_TYPE) >> OUTPUT_TYPE_Pos) << position);
 8001b6e:	683b      	ldr	r3, [r7, #0]
 8001b70:	685b      	ldr	r3, [r3, #4]
 8001b72:	091b      	lsrs	r3, r3, #4
 8001b74:	f003 0201 	and.w	r2, r3, #1
 8001b78:	697b      	ldr	r3, [r7, #20]
 8001b7a:	fa02 f303 	lsl.w	r3, r2, r3
 8001b7e:	693a      	ldr	r2, [r7, #16]
 8001b80:	4313      	orrs	r3, r2
 8001b82:	613b      	str	r3, [r7, #16]
        GPIOx->OTYPER = temp;
 8001b84:	687b      	ldr	r3, [r7, #4]
 8001b86:	693a      	ldr	r2, [r7, #16]
 8001b88:	605a      	str	r2, [r3, #4]
      }

#endif /* STM32L471xx || STM32L475xx || STM32L476xx || STM32L485xx || STM32L486xx */

      /* Activate the Pull-up or Pull down resistor for the current IO */
      if ((GPIO_Init->Mode & GPIO_MODE) != MODE_ANALOG)
 8001b8a:	683b      	ldr	r3, [r7, #0]
 8001b8c:	685b      	ldr	r3, [r3, #4]
 8001b8e:	f003 0303 	and.w	r3, r3, #3
 8001b92:	2b03      	cmp	r3, #3
 8001b94:	d017      	beq.n	8001bc6 <HAL_GPIO_Init+0xde>
      {
        /* Check the Pull parameter */
        assert_param(IS_GPIO_PULL(GPIO_Init->Pull));

        temp = GPIOx->PUPDR;
 8001b96:	687b      	ldr	r3, [r7, #4]
 8001b98:	68db      	ldr	r3, [r3, #12]
 8001b9a:	613b      	str	r3, [r7, #16]
        temp &= ~(GPIO_PUPDR_PUPD0 << (position * 2U));
 8001b9c:	697b      	ldr	r3, [r7, #20]
 8001b9e:	005b      	lsls	r3, r3, #1
 8001ba0:	2203      	movs	r2, #3
 8001ba2:	fa02 f303 	lsl.w	r3, r2, r3
 8001ba6:	43db      	mvns	r3, r3
 8001ba8:	693a      	ldr	r2, [r7, #16]
 8001baa:	4013      	ands	r3, r2
 8001bac:	613b      	str	r3, [r7, #16]
        temp |= ((GPIO_Init->Pull) << (position * 2U));
 8001bae:	683b      	ldr	r3, [r7, #0]
 8001bb0:	689a      	ldr	r2, [r3, #8]
 8001bb2:	697b      	ldr	r3, [r7, #20]
 8001bb4:	005b      	lsls	r3, r3, #1
 8001bb6:	fa02 f303 	lsl.w	r3, r2, r3
 8001bba:	693a      	ldr	r2, [r7, #16]
 8001bbc:	4313      	orrs	r3, r2
 8001bbe:	613b      	str	r3, [r7, #16]
        GPIOx->PUPDR = temp;
 8001bc0:	687b      	ldr	r3, [r7, #4]
 8001bc2:	693a      	ldr	r2, [r7, #16]
 8001bc4:	60da      	str	r2, [r3, #12]
      }

      /* In case of Alternate function mode selection */
      if ((GPIO_Init->Mode & GPIO_MODE) == MODE_AF)
 8001bc6:	683b      	ldr	r3, [r7, #0]
 8001bc8:	685b      	ldr	r3, [r3, #4]
 8001bca:	f003 0303 	and.w	r3, r3, #3
 8001bce:	2b02      	cmp	r3, #2
 8001bd0:	d123      	bne.n	8001c1a <HAL_GPIO_Init+0x132>
        /* Check the Alternate function parameters */
        assert_param(IS_GPIO_AF_INSTANCE(GPIOx));
        assert_param(IS_GPIO_AF(GPIO_Init->Alternate));

        /* Configure Alternate function mapped with the current IO */
        temp = GPIOx->AFR[position >> 3u];
 8001bd2:	697b      	ldr	r3, [r7, #20]
 8001bd4:	08da      	lsrs	r2, r3, #3
 8001bd6:	687b      	ldr	r3, [r7, #4]
 8001bd8:	3208      	adds	r2, #8
 8001bda:	f853 3022 	ldr.w	r3, [r3, r2, lsl #2]
 8001bde:	613b      	str	r3, [r7, #16]
        temp &= ~(0xFu << ((position & 0x07u) * 4u));
 8001be0:	697b      	ldr	r3, [r7, #20]
 8001be2:	f003 0307 	and.w	r3, r3, #7
 8001be6:	009b      	lsls	r3, r3, #2
 8001be8:	220f      	movs	r2, #15
 8001bea:	fa02 f303 	lsl.w	r3, r2, r3
 8001bee:	43db      	mvns	r3, r3
 8001bf0:	693a      	ldr	r2, [r7, #16]
 8001bf2:	4013      	ands	r3, r2
 8001bf4:	613b      	str	r3, [r7, #16]
        temp |= ((GPIO_Init->Alternate) << ((position & 0x07u) * 4u));
 8001bf6:	683b      	ldr	r3, [r7, #0]
 8001bf8:	691a      	ldr	r2, [r3, #16]
 8001bfa:	697b      	ldr	r3, [r7, #20]
 8001bfc:	f003 0307 	and.w	r3, r3, #7
 8001c00:	009b      	lsls	r3, r3, #2
 8001c02:	fa02 f303 	lsl.w	r3, r2, r3
 8001c06:	693a      	ldr	r2, [r7, #16]
 8001c08:	4313      	orrs	r3, r2
 8001c0a:	613b      	str	r3, [r7, #16]
        GPIOx->AFR[position >> 3u] = temp;
 8001c0c:	697b      	ldr	r3, [r7, #20]
 8001c0e:	08da      	lsrs	r2, r3, #3
 8001c10:	687b      	ldr	r3, [r7, #4]
 8001c12:	3208      	adds	r2, #8
 8001c14:	6939      	ldr	r1, [r7, #16]
 8001c16:	f843 1022 	str.w	r1, [r3, r2, lsl #2]
      }

      /* Configure IO Direction mode (Input, Output, Alternate or Analog) */
      temp = GPIOx->MODER;
 8001c1a:	687b      	ldr	r3, [r7, #4]
 8001c1c:	681b      	ldr	r3, [r3, #0]
 8001c1e:	613b      	str	r3, [r7, #16]
      temp &= ~(GPIO_MODER_MODE0 << (position * 2u));
 8001c20:	697b      	ldr	r3, [r7, #20]
 8001c22:	005b      	lsls	r3, r3, #1
 8001c24:	2203      	movs	r2, #3
 8001c26:	fa02 f303 	lsl.w	r3, r2, r3
 8001c2a:	43db      	mvns	r3, r3
 8001c2c:	693a      	ldr	r2, [r7, #16]
 8001c2e:	4013      	ands	r3, r2
 8001c30:	613b      	str	r3, [r7, #16]
      temp |= ((GPIO_Init->Mode & GPIO_MODE) << (position * 2u));
 8001c32:	683b      	ldr	r3, [r7, #0]
 8001c34:	685b      	ldr	r3, [r3, #4]
 8001c36:	f003 0203 	and.w	r2, r3, #3
 8001c3a:	697b      	ldr	r3, [r7, #20]
 8001c3c:	005b      	lsls	r3, r3, #1
 8001c3e:	fa02 f303 	lsl.w	r3, r2, r3
 8001c42:	693a      	ldr	r2, [r7, #16]
 8001c44:	4313      	orrs	r3, r2
 8001c46:	613b      	str	r3, [r7, #16]
      GPIOx->MODER = temp;
 8001c48:	687b      	ldr	r3, [r7, #4]
 8001c4a:	693a      	ldr	r2, [r7, #16]
 8001c4c:	601a      	str	r2, [r3, #0]

      /*--------------------- EXTI Mode Configuration ------------------------*/
      /* Configure the External Interrupt or event for the current IO */
      if ((GPIO_Init->Mode & EXTI_MODE) != 0x00u)
 8001c4e:	683b      	ldr	r3, [r7, #0]
 8001c50:	685b      	ldr	r3, [r3, #4]
 8001c52:	f403 3340 	and.w	r3, r3, #196608	@ 0x30000
 8001c56:	2b00      	cmp	r3, #0
 8001c58:	f000 80b2 	beq.w	8001dc0 <HAL_GPIO_Init+0x2d8>
      {
        /* Enable SYSCFG Clock */
        __HAL_RCC_SYSCFG_CLK_ENABLE();
 8001c5c:	4b61      	ldr	r3, [pc, #388]	@ (8001de4 <HAL_GPIO_Init+0x2fc>)
 8001c5e:	6e1b      	ldr	r3, [r3, #96]	@ 0x60
 8001c60:	4a60      	ldr	r2, [pc, #384]	@ (8001de4 <HAL_GPIO_Init+0x2fc>)
 8001c62:	f043 0301 	orr.w	r3, r3, #1
 8001c66:	6613      	str	r3, [r2, #96]	@ 0x60
 8001c68:	4b5e      	ldr	r3, [pc, #376]	@ (8001de4 <HAL_GPIO_Init+0x2fc>)
 8001c6a:	6e1b      	ldr	r3, [r3, #96]	@ 0x60
 8001c6c:	f003 0301 	and.w	r3, r3, #1
 8001c70:	60bb      	str	r3, [r7, #8]
 8001c72:	68bb      	ldr	r3, [r7, #8]

        temp = SYSCFG->EXTICR[position >> 2u];
 8001c74:	4a5c      	ldr	r2, [pc, #368]	@ (8001de8 <HAL_GPIO_Init+0x300>)
 8001c76:	697b      	ldr	r3, [r7, #20]
 8001c78:	089b      	lsrs	r3, r3, #2
 8001c7a:	3302      	adds	r3, #2
 8001c7c:	f852 3023 	ldr.w	r3, [r2, r3, lsl #2]
 8001c80:	613b      	str	r3, [r7, #16]
        temp &= ~(0x0FuL << (4u * (position & 0x03u)));
 8001c82:	697b      	ldr	r3, [r7, #20]
 8001c84:	f003 0303 	and.w	r3, r3, #3
 8001c88:	009b      	lsls	r3, r3, #2
 8001c8a:	220f      	movs	r2, #15
 8001c8c:	fa02 f303 	lsl.w	r3, r2, r3
 8001c90:	43db      	mvns	r3, r3
 8001c92:	693a      	ldr	r2, [r7, #16]
 8001c94:	4013      	ands	r3, r2
 8001c96:	613b      	str	r3, [r7, #16]
        temp |= (GPIO_GET_INDEX(GPIOx) << (4u * (position & 0x03u)));
 8001c98:	687b      	ldr	r3, [r7, #4]
 8001c9a:	f1b3 4f90 	cmp.w	r3, #1207959552	@ 0x48000000
 8001c9e:	d02b      	beq.n	8001cf8 <HAL_GPIO_Init+0x210>
 8001ca0:	687b      	ldr	r3, [r7, #4]
 8001ca2:	4a52      	ldr	r2, [pc, #328]	@ (8001dec <HAL_GPIO_Init+0x304>)
 8001ca4:	4293      	cmp	r3, r2
 8001ca6:	d025      	beq.n	8001cf4 <HAL_GPIO_Init+0x20c>
 8001ca8:	687b      	ldr	r3, [r7, #4]
 8001caa:	4a51      	ldr	r2, [pc, #324]	@ (8001df0 <HAL_GPIO_Init+0x308>)
 8001cac:	4293      	cmp	r3, r2
 8001cae:	d01f      	beq.n	8001cf0 <HAL_GPIO_Init+0x208>
 8001cb0:	687b      	ldr	r3, [r7, #4]
 8001cb2:	4a50      	ldr	r2, [pc, #320]	@ (8001df4 <HAL_GPIO_Init+0x30c>)
 8001cb4:	4293      	cmp	r3, r2
 8001cb6:	d019      	beq.n	8001cec <HAL_GPIO_Init+0x204>
 8001cb8:	687b      	ldr	r3, [r7, #4]
 8001cba:	4a4f      	ldr	r2, [pc, #316]	@ (8001df8 <HAL_GPIO_Init+0x310>)
 8001cbc:	4293      	cmp	r3, r2
 8001cbe:	d013      	beq.n	8001ce8 <HAL_GPIO_Init+0x200>
 8001cc0:	687b      	ldr	r3, [r7, #4]
 8001cc2:	4a4e      	ldr	r2, [pc, #312]	@ (8001dfc <HAL_GPIO_Init+0x314>)
 8001cc4:	4293      	cmp	r3, r2
 8001cc6:	d00d      	beq.n	8001ce4 <HAL_GPIO_Init+0x1fc>
 8001cc8:	687b      	ldr	r3, [r7, #4]
 8001cca:	4a4d      	ldr	r2, [pc, #308]	@ (8001e00 <HAL_GPIO_Init+0x318>)
 8001ccc:	4293      	cmp	r3, r2
 8001cce:	d007      	beq.n	8001ce0 <HAL_GPIO_Init+0x1f8>
 8001cd0:	687b      	ldr	r3, [r7, #4]
 8001cd2:	4a4c      	ldr	r2, [pc, #304]	@ (8001e04 <HAL_GPIO_Init+0x31c>)
 8001cd4:	4293      	cmp	r3, r2
 8001cd6:	d101      	bne.n	8001cdc <HAL_GPIO_Init+0x1f4>
 8001cd8:	2307      	movs	r3, #7
 8001cda:	e00e      	b.n	8001cfa <HAL_GPIO_Init+0x212>
 8001cdc:	2308      	movs	r3, #8
 8001cde:	e00c      	b.n	8001cfa <HAL_GPIO_Init+0x212>
 8001ce0:	2306      	movs	r3, #6
 8001ce2:	e00a      	b.n	8001cfa <HAL_GPIO_Init+0x212>
 8001ce4:	2305      	movs	r3, #5
 8001ce6:	e008      	b.n	8001cfa <HAL_GPIO_Init+0x212>
 8001ce8:	2304      	movs	r3, #4
 8001cea:	e006      	b.n	8001cfa <HAL_GPIO_Init+0x212>
 8001cec:	2303      	movs	r3, #3
 8001cee:	e004      	b.n	8001cfa <HAL_GPIO_Init+0x212>
 8001cf0:	2302      	movs	r3, #2
 8001cf2:	e002      	b.n	8001cfa <HAL_GPIO_Init+0x212>
 8001cf4:	2301      	movs	r3, #1
 8001cf6:	e000      	b.n	8001cfa <HAL_GPIO_Init+0x212>
 8001cf8:	2300      	movs	r3, #0
 8001cfa:	697a      	ldr	r2, [r7, #20]
 8001cfc:	f002 0203 	and.w	r2, r2, #3
 8001d00:	0092      	lsls	r2, r2, #2
 8001d02:	4093      	lsls	r3, r2
 8001d04:	693a      	ldr	r2, [r7, #16]
 8001d06:	4313      	orrs	r3, r2
 8001d08:	613b      	str	r3, [r7, #16]
        SYSCFG->EXTICR[position >> 2u] = temp;
 8001d0a:	4937      	ldr	r1, [pc, #220]	@ (8001de8 <HAL_GPIO_Init+0x300>)
 8001d0c:	697b      	ldr	r3, [r7, #20]
 8001d0e:	089b      	lsrs	r3, r3, #2
 8001d10:	3302      	adds	r3, #2
 8001d12:	693a      	ldr	r2, [r7, #16]
 8001d14:	f841 2023 	str.w	r2, [r1, r3, lsl #2]

        /* Clear Rising Falling edge configuration */
        temp = EXTI->RTSR1;
 8001d18:	4b3b      	ldr	r3, [pc, #236]	@ (8001e08 <HAL_GPIO_Init+0x320>)
 8001d1a:	689b      	ldr	r3, [r3, #8]
 8001d1c:	613b      	str	r3, [r7, #16]
        temp &= ~(iocurrent);
 8001d1e:	68fb      	ldr	r3, [r7, #12]
 8001d20:	43db      	mvns	r3, r3
 8001d22:	693a      	ldr	r2, [r7, #16]
 8001d24:	4013      	ands	r3, r2
 8001d26:	613b      	str	r3, [r7, #16]
        if ((GPIO_Init->Mode & TRIGGER_RISING) != 0x00u)
 8001d28:	683b      	ldr	r3, [r7, #0]
 8001d2a:	685b      	ldr	r3, [r3, #4]
 8001d2c:	f403 1380 	and.w	r3, r3, #1048576	@ 0x100000
 8001d30:	2b00      	cmp	r3, #0
 8001d32:	d003      	beq.n	8001d3c <HAL_GPIO_Init+0x254>
        {
          temp |= iocurrent;
 8001d34:	693a      	ldr	r2, [r7, #16]
 8001d36:	68fb      	ldr	r3, [r7, #12]
 8001d38:	4313      	orrs	r3, r2
 8001d3a:	613b      	str	r3, [r7, #16]
        }
        EXTI->RTSR1 = temp;
 8001d3c:	4a32      	ldr	r2, [pc, #200]	@ (8001e08 <HAL_GPIO_Init+0x320>)
 8001d3e:	693b      	ldr	r3, [r7, #16]
 8001d40:	6093      	str	r3, [r2, #8]

        temp = EXTI->FTSR1;
 8001d42:	4b31      	ldr	r3, [pc, #196]	@ (8001e08 <HAL_GPIO_Init+0x320>)
 8001d44:	68db      	ldr	r3, [r3, #12]
 8001d46:	613b      	str	r3, [r7, #16]
        temp &= ~(iocurrent);
 8001d48:	68fb      	ldr	r3, [r7, #12]
 8001d4a:	43db      	mvns	r3, r3
 8001d4c:	693a      	ldr	r2, [r7, #16]
 8001d4e:	4013      	ands	r3, r2
 8001d50:	613b      	str	r3, [r7, #16]
        if ((GPIO_Init->Mode & TRIGGER_FALLING) != 0x00u)
 8001d52:	683b      	ldr	r3, [r7, #0]
 8001d54:	685b      	ldr	r3, [r3, #4]
 8001d56:	f403 1300 	and.w	r3, r3, #2097152	@ 0x200000
 8001d5a:	2b00      	cmp	r3, #0
 8001d5c:	d003      	beq.n	8001d66 <HAL_GPIO_Init+0x27e>
        {
          temp |= iocurrent;
 8001d5e:	693a      	ldr	r2, [r7, #16]
 8001d60:	68fb      	ldr	r3, [r7, #12]
 8001d62:	4313      	orrs	r3, r2
 8001d64:	613b      	str	r3, [r7, #16]
        }
        EXTI->FTSR1 = temp;
 8001d66:	4a28      	ldr	r2, [pc, #160]	@ (8001e08 <HAL_GPIO_Init+0x320>)
 8001d68:	693b      	ldr	r3, [r7, #16]
 8001d6a:	60d3      	str	r3, [r2, #12]

        /* Clear EXTI line configuration */
        temp = EXTI->EMR1;
 8001d6c:	4b26      	ldr	r3, [pc, #152]	@ (8001e08 <HAL_GPIO_Init+0x320>)
 8001d6e:	685b      	ldr	r3, [r3, #4]
 8001d70:	613b      	str	r3, [r7, #16]
        temp &= ~(iocurrent);
 8001d72:	68fb      	ldr	r3, [r7, #12]
 8001d74:	43db      	mvns	r3, r3
 8001d76:	693a      	ldr	r2, [r7, #16]
 8001d78:	4013      	ands	r3, r2
 8001d7a:	613b      	str	r3, [r7, #16]
        if ((GPIO_Init->Mode & EXTI_EVT) != 0x00u)
 8001d7c:	683b      	ldr	r3, [r7, #0]
 8001d7e:	685b      	ldr	r3, [r3, #4]
 8001d80:	f403 3300 	and.w	r3, r3, #131072	@ 0x20000
 8001d84:	2b00      	cmp	r3, #0
 8001d86:	d003      	beq.n	8001d90 <HAL_GPIO_Init+0x2a8>
        {
          temp |= iocurrent;
 8001d88:	693a      	ldr	r2, [r7, #16]
 8001d8a:	68fb      	ldr	r3, [r7, #12]
 8001d8c:	4313      	orrs	r3, r2
 8001d8e:	613b      	str	r3, [r7, #16]
        }
        EXTI->EMR1 = temp;
 8001d90:	4a1d      	ldr	r2, [pc, #116]	@ (8001e08 <HAL_GPIO_Init+0x320>)
 8001d92:	693b      	ldr	r3, [r7, #16]
 8001d94:	6053      	str	r3, [r2, #4]

        temp = EXTI->IMR1;
 8001d96:	4b1c      	ldr	r3, [pc, #112]	@ (8001e08 <HAL_GPIO_Init+0x320>)
 8001d98:	681b      	ldr	r3, [r3, #0]
 8001d9a:	613b      	str	r3, [r7, #16]
        temp &= ~(iocurrent);
 8001d9c:	68fb      	ldr	r3, [r7, #12]
 8001d9e:	43db      	mvns	r3, r3
 8001da0:	693a      	ldr	r2, [r7, #16]
 8001da2:	4013      	ands	r3, r2
 8001da4:	613b      	str	r3, [r7, #16]
        if ((GPIO_Init->Mode & EXTI_IT) != 0x00u)
 8001da6:	683b      	ldr	r3, [r7, #0]
 8001da8:	685b      	ldr	r3, [r3, #4]
 8001daa:	f403 3380 	and.w	r3, r3, #65536	@ 0x10000
 8001dae:	2b00      	cmp	r3, #0
 8001db0:	d003      	beq.n	8001dba <HAL_GPIO_Init+0x2d2>
        {
          temp |= iocurrent;
 8001db2:	693a      	ldr	r2, [r7, #16]
 8001db4:	68fb      	ldr	r3, [r7, #12]
 8001db6:	4313      	orrs	r3, r2
 8001db8:	613b      	str	r3, [r7, #16]
        }
        EXTI->IMR1 = temp;
 8001dba:	4a13      	ldr	r2, [pc, #76]	@ (8001e08 <HAL_GPIO_Init+0x320>)
 8001dbc:	693b      	ldr	r3, [r7, #16]
 8001dbe:	6013      	str	r3, [r2, #0]
      }
    }

    position++;
 8001dc0:	697b      	ldr	r3, [r7, #20]
 8001dc2:	3301      	adds	r3, #1
 8001dc4:	617b      	str	r3, [r7, #20]
  while (((GPIO_Init->Pin) >> position) != 0x00u)
 8001dc6:	683b      	ldr	r3, [r7, #0]
 8001dc8:	681a      	ldr	r2, [r3, #0]
 8001dca:	697b      	ldr	r3, [r7, #20]
 8001dcc:	fa22 f303 	lsr.w	r3, r2, r3
 8001dd0:	2b00      	cmp	r3, #0
 8001dd2:	f47f ae91 	bne.w	8001af8 <HAL_GPIO_Init+0x10>
  }
}
 8001dd6:	bf00      	nop
 8001dd8:	bf00      	nop
 8001dda:	371c      	adds	r7, #28
 8001ddc:	46bd      	mov	sp, r7
 8001dde:	f85d 7b04 	ldr.w	r7, [sp], #4
 8001de2:	4770      	bx	lr
 8001de4:	40021000 	.word	0x40021000
 8001de8:	40010000 	.word	0x40010000
 8001dec:	48000400 	.word	0x48000400
 8001df0:	48000800 	.word	0x48000800
 8001df4:	48000c00 	.word	0x48000c00
 8001df8:	48001000 	.word	0x48001000
 8001dfc:	48001400 	.word	0x48001400
 8001e00:	48001800 	.word	0x48001800
 8001e04:	48001c00 	.word	0x48001c00
 8001e08:	40010400 	.word	0x40010400

08001e0c <HAL_GPIO_WritePin>:
  *            @arg GPIO_PIN_RESET: to clear the port pin
  *            @arg GPIO_PIN_SET: to set the port pin
  * @retval None
  */
void HAL_GPIO_WritePin(GPIO_TypeDef* GPIOx, uint16_t GPIO_Pin, GPIO_PinState PinState)
{
 8001e0c:	b480      	push	{r7}
 8001e0e:	b083      	sub	sp, #12
 8001e10:	af00      	add	r7, sp, #0
 8001e12:	6078      	str	r0, [r7, #4]
 8001e14:	460b      	mov	r3, r1
 8001e16:	807b      	strh	r3, [r7, #2]
 8001e18:	4613      	mov	r3, r2
 8001e1a:	707b      	strb	r3, [r7, #1]
  /* Check the parameters */
  assert_param(IS_GPIO_PIN(GPIO_Pin));
  assert_param(IS_GPIO_PIN_ACTION(PinState));

  if(PinState != GPIO_PIN_RESET)
 8001e1c:	787b      	ldrb	r3, [r7, #1]
 8001e1e:	2b00      	cmp	r3, #0
 8001e20:	d003      	beq.n	8001e2a <HAL_GPIO_WritePin+0x1e>
  {
    GPIOx->BSRR = (uint32_t)GPIO_Pin;
 8001e22:	887a      	ldrh	r2, [r7, #2]
 8001e24:	687b      	ldr	r3, [r7, #4]
 8001e26:	619a      	str	r2, [r3, #24]
  }
  else
  {
    GPIOx->BRR = (uint32_t)GPIO_Pin;
  }
}
 8001e28:	e002      	b.n	8001e30 <HAL_GPIO_WritePin+0x24>
    GPIOx->BRR = (uint32_t)GPIO_Pin;
 8001e2a:	887a      	ldrh	r2, [r7, #2]
 8001e2c:	687b      	ldr	r3, [r7, #4]
 8001e2e:	629a      	str	r2, [r3, #40]	@ 0x28
}
 8001e30:	bf00      	nop
 8001e32:	370c      	adds	r7, #12
 8001e34:	46bd      	mov	sp, r7
 8001e36:	f85d 7b04 	ldr.w	r7, [sp], #4
 8001e3a:	4770      	bx	lr

08001e3c <HAL_GPIO_EXTI_IRQHandler>:
  * @brief  Handle EXTI interrupt request.
  * @param  GPIO_Pin Specifies the port pin connected to corresponding EXTI line.
  * @retval None
  */
void HAL_GPIO_EXTI_IRQHandler(uint16_t GPIO_Pin)
{
 8001e3c:	b580      	push	{r7, lr}
 8001e3e:	b082      	sub	sp, #8
 8001e40:	af00      	add	r7, sp, #0
 8001e42:	4603      	mov	r3, r0
 8001e44:	80fb      	strh	r3, [r7, #6]
  /* EXTI line interrupt detected */
  if(__HAL_GPIO_EXTI_GET_IT(GPIO_Pin) != 0x00u)
 8001e46:	4b08      	ldr	r3, [pc, #32]	@ (8001e68 <HAL_GPIO_EXTI_IRQHandler+0x2c>)
 8001e48:	695a      	ldr	r2, [r3, #20]
 8001e4a:	88fb      	ldrh	r3, [r7, #6]
 8001e4c:	4013      	ands	r3, r2
 8001e4e:	2b00      	cmp	r3, #0
 8001e50:	d006      	beq.n	8001e60 <HAL_GPIO_EXTI_IRQHandler+0x24>
  {
    __HAL_GPIO_EXTI_CLEAR_IT(GPIO_Pin);
 8001e52:	4a05      	ldr	r2, [pc, #20]	@ (8001e68 <HAL_GPIO_EXTI_IRQHandler+0x2c>)
 8001e54:	88fb      	ldrh	r3, [r7, #6]
 8001e56:	6153      	str	r3, [r2, #20]
    HAL_GPIO_EXTI_Callback(GPIO_Pin);
 8001e58:	88fb      	ldrh	r3, [r7, #6]
 8001e5a:	4618      	mov	r0, r3
 8001e5c:	f7fe f9ce 	bl	80001fc <HAL_GPIO_EXTI_Callback>
  }
}
 8001e60:	bf00      	nop
 8001e62:	3708      	adds	r7, #8
 8001e64:	46bd      	mov	sp, r7
 8001e66:	bd80      	pop	{r7, pc}
 8001e68:	40010400 	.word	0x40010400

08001e6c <HAL_PWREx_GetVoltageRange>:
  * @brief Return Voltage Scaling Range.
  * @retval VOS bit field (PWR_REGULATOR_VOLTAGE_SCALE1 or PWR_REGULATOR_VOLTAGE_SCALE2
  *         or PWR_REGULATOR_VOLTAGE_SCALE1_BOOST when applicable)
  */
uint32_t HAL_PWREx_GetVoltageRange(void)
{
 8001e6c:	b480      	push	{r7}
 8001e6e:	af00      	add	r7, sp, #0
#if defined(PWR_CR5_R1MODE)
    if (READ_BIT(PWR->CR1, PWR_CR1_VOS) == PWR_REGULATOR_VOLTAGE_SCALE2)
 8001e70:	4b0d      	ldr	r3, [pc, #52]	@ (8001ea8 <HAL_PWREx_GetVoltageRange+0x3c>)
 8001e72:	681b      	ldr	r3, [r3, #0]
 8001e74:	f403 63c0 	and.w	r3, r3, #1536	@ 0x600
 8001e78:	f5b3 6f80 	cmp.w	r3, #1024	@ 0x400
 8001e7c:	d102      	bne.n	8001e84 <HAL_PWREx_GetVoltageRange+0x18>
    {
      return PWR_REGULATOR_VOLTAGE_SCALE2;
 8001e7e:	f44f 6380 	mov.w	r3, #1024	@ 0x400
 8001e82:	e00b      	b.n	8001e9c <HAL_PWREx_GetVoltageRange+0x30>
    }
    else if (READ_BIT(PWR->CR5, PWR_CR5_R1MODE) == PWR_CR5_R1MODE)
 8001e84:	4b08      	ldr	r3, [pc, #32]	@ (8001ea8 <HAL_PWREx_GetVoltageRange+0x3c>)
 8001e86:	f8d3 3080 	ldr.w	r3, [r3, #128]	@ 0x80
 8001e8a:	f403 7380 	and.w	r3, r3, #256	@ 0x100
 8001e8e:	f5b3 7f80 	cmp.w	r3, #256	@ 0x100
 8001e92:	d102      	bne.n	8001e9a <HAL_PWREx_GetVoltageRange+0x2e>
    {
      /* PWR_CR5_R1MODE bit set means that Range 1 Boost is disabled */
      return PWR_REGULATOR_VOLTAGE_SCALE1;
 8001e94:	f44f 7300 	mov.w	r3, #512	@ 0x200
 8001e98:	e000      	b.n	8001e9c <HAL_PWREx_GetVoltageRange+0x30>
    }
    else
    {
      return PWR_REGULATOR_VOLTAGE_SCALE1_BOOST;
 8001e9a:	2300      	movs	r3, #0
    }
#else
  return  (PWR->CR1 & PWR_CR1_VOS);
#endif
}
 8001e9c:	4618      	mov	r0, r3
 8001e9e:	46bd      	mov	sp, r7
 8001ea0:	f85d 7b04 	ldr.w	r7, [sp], #4
 8001ea4:	4770      	bx	lr
 8001ea6:	bf00      	nop
 8001ea8:	40007000 	.word	0x40007000

08001eac <HAL_PWREx_ControlVoltageScaling>:
  *        cleared before returning the status. If the flag is not cleared within
  *        50 microseconds, HAL_TIMEOUT status is reported.
  * @retval HAL Status
  */
HAL_StatusTypeDef HAL_PWREx_ControlVoltageScaling(uint32_t VoltageScaling)
{
 8001eac:	b480      	push	{r7}
 8001eae:	b085      	sub	sp, #20
 8001eb0:	af00      	add	r7, sp, #0
 8001eb2:	6078      	str	r0, [r7, #4]
  uint32_t wait_loop_index;

  assert_param(IS_PWR_VOLTAGE_SCALING_RANGE(VoltageScaling));

#if defined(PWR_CR5_R1MODE)
  if (VoltageScaling == PWR_REGULATOR_VOLTAGE_SCALE1_BOOST)
 8001eb4:	687b      	ldr	r3, [r7, #4]
 8001eb6:	2b00      	cmp	r3, #0
 8001eb8:	d141      	bne.n	8001f3e <HAL_PWREx_ControlVoltageScaling+0x92>
  {
    /* If current range is range 2 */
    if (READ_BIT(PWR->CR1, PWR_CR1_VOS) == PWR_REGULATOR_VOLTAGE_SCALE2)
 8001eba:	4b4b      	ldr	r3, [pc, #300]	@ (8001fe8 <HAL_PWREx_ControlVoltageScaling+0x13c>)
 8001ebc:	681b      	ldr	r3, [r3, #0]
 8001ebe:	f403 63c0 	and.w	r3, r3, #1536	@ 0x600
 8001ec2:	f5b3 6f80 	cmp.w	r3, #1024	@ 0x400
 8001ec6:	d131      	bne.n	8001f2c <HAL_PWREx_ControlVoltageScaling+0x80>
    {
      /* Make sure Range 1 Boost is enabled */
      CLEAR_BIT(PWR->CR5, PWR_CR5_R1MODE);
 8001ec8:	4b47      	ldr	r3, [pc, #284]	@ (8001fe8 <HAL_PWREx_ControlVoltageScaling+0x13c>)
 8001eca:	f8d3 3080 	ldr.w	r3, [r3, #128]	@ 0x80
 8001ece:	4a46      	ldr	r2, [pc, #280]	@ (8001fe8 <HAL_PWREx_ControlVoltageScaling+0x13c>)
 8001ed0:	f423 7380 	bic.w	r3, r3, #256	@ 0x100
 8001ed4:	f8c2 3080 	str.w	r3, [r2, #128]	@ 0x80

      /* Set Range 1 */
      MODIFY_REG(PWR->CR1, PWR_CR1_VOS, PWR_REGULATOR_VOLTAGE_SCALE1);
 8001ed8:	4b43      	ldr	r3, [pc, #268]	@ (8001fe8 <HAL_PWREx_ControlVoltageScaling+0x13c>)
 8001eda:	681b      	ldr	r3, [r3, #0]
 8001edc:	f423 63c0 	bic.w	r3, r3, #1536	@ 0x600
 8001ee0:	4a41      	ldr	r2, [pc, #260]	@ (8001fe8 <HAL_PWREx_ControlVoltageScaling+0x13c>)
 8001ee2:	f443 7300 	orr.w	r3, r3, #512	@ 0x200
 8001ee6:	6013      	str	r3, [r2, #0]

      /* Wait until VOSF is cleared */
      wait_loop_index = ((PWR_FLAG_SETTING_DELAY_US * SystemCoreClock) / 1000000U) + 1;
 8001ee8:	4b40      	ldr	r3, [pc, #256]	@ (8001fec <HAL_PWREx_ControlVoltageScaling+0x140>)
 8001eea:	681b      	ldr	r3, [r3, #0]
 8001eec:	2232      	movs	r2, #50	@ 0x32
 8001eee:	fb02 f303 	mul.w	r3, r2, r3
 8001ef2:	4a3f      	ldr	r2, [pc, #252]	@ (8001ff0 <HAL_PWREx_ControlVoltageScaling+0x144>)
 8001ef4:	fba2 2303 	umull	r2, r3, r2, r3
 8001ef8:	0c9b      	lsrs	r3, r3, #18
 8001efa:	3301      	adds	r3, #1
 8001efc:	60fb      	str	r3, [r7, #12]
      while ((HAL_IS_BIT_SET(PWR->SR2, PWR_SR2_VOSF)) && (wait_loop_index != 0U))
 8001efe:	e002      	b.n	8001f06 <HAL_PWREx_ControlVoltageScaling+0x5a>
      {
        wait_loop_index--;
 8001f00:	68fb      	ldr	r3, [r7, #12]
 8001f02:	3b01      	subs	r3, #1
 8001f04:	60fb      	str	r3, [r7, #12]
      while ((HAL_IS_BIT_SET(PWR->SR2, PWR_SR2_VOSF)) && (wait_loop_index != 0U))
 8001f06:	4b38      	ldr	r3, [pc, #224]	@ (8001fe8 <HAL_PWREx_ControlVoltageScaling+0x13c>)
 8001f08:	695b      	ldr	r3, [r3, #20]
 8001f0a:	f403 6380 	and.w	r3, r3, #1024	@ 0x400
 8001f0e:	f5b3 6f80 	cmp.w	r3, #1024	@ 0x400
 8001f12:	d102      	bne.n	8001f1a <HAL_PWREx_ControlVoltageScaling+0x6e>
 8001f14:	68fb      	ldr	r3, [r7, #12]
 8001f16:	2b00      	cmp	r3, #0
 8001f18:	d1f2      	bne.n	8001f00 <HAL_PWREx_ControlVoltageScaling+0x54>
      }
      if (HAL_IS_BIT_SET(PWR->SR2, PWR_SR2_VOSF))
 8001f1a:	4b33      	ldr	r3, [pc, #204]	@ (8001fe8 <HAL_PWREx_ControlVoltageScaling+0x13c>)
 8001f1c:	695b      	ldr	r3, [r3, #20]
 8001f1e:	f403 6380 	and.w	r3, r3, #1024	@ 0x400
 8001f22:	f5b3 6f80 	cmp.w	r3, #1024	@ 0x400
 8001f26:	d158      	bne.n	8001fda <HAL_PWREx_ControlVoltageScaling+0x12e>
      {
        return HAL_TIMEOUT;
 8001f28:	2303      	movs	r3, #3
 8001f2a:	e057      	b.n	8001fdc <HAL_PWREx_ControlVoltageScaling+0x130>
    }
    /* If current range is range 1 normal or boost mode */
    else
    {
      /* Enable Range 1 Boost (no issue if bit already reset) */
      CLEAR_BIT(PWR->CR5, PWR_CR5_R1MODE);
 8001f2c:	4b2e      	ldr	r3, [pc, #184]	@ (8001fe8 <HAL_PWREx_ControlVoltageScaling+0x13c>)
 8001f2e:	f8d3 3080 	ldr.w	r3, [r3, #128]	@ 0x80
 8001f32:	4a2d      	ldr	r2, [pc, #180]	@ (8001fe8 <HAL_PWREx_ControlVoltageScaling+0x13c>)
 8001f34:	f423 7380 	bic.w	r3, r3, #256	@ 0x100
 8001f38:	f8c2 3080 	str.w	r3, [r2, #128]	@ 0x80
 8001f3c:	e04d      	b.n	8001fda <HAL_PWREx_ControlVoltageScaling+0x12e>
    }
  }
  else if (VoltageScaling == PWR_REGULATOR_VOLTAGE_SCALE1)
 8001f3e:	687b      	ldr	r3, [r7, #4]
 8001f40:	f5b3 7f00 	cmp.w	r3, #512	@ 0x200
 8001f44:	d141      	bne.n	8001fca <HAL_PWREx_ControlVoltageScaling+0x11e>
  {
    /* If current range is range 2 */
    if (READ_BIT(PWR->CR1, PWR_CR1_VOS) == PWR_REGULATOR_VOLTAGE_SCALE2)
 8001f46:	4b28      	ldr	r3, [pc, #160]	@ (8001fe8 <HAL_PWREx_ControlVoltageScaling+0x13c>)
 8001f48:	681b      	ldr	r3, [r3, #0]
 8001f4a:	f403 63c0 	and.w	r3, r3, #1536	@ 0x600
 8001f4e:	f5b3 6f80 	cmp.w	r3, #1024	@ 0x400
 8001f52:	d131      	bne.n	8001fb8 <HAL_PWREx_ControlVoltageScaling+0x10c>
    {
      /* Make sure Range 1 Boost is disabled */
      SET_BIT(PWR->CR5, PWR_CR5_R1MODE);
 8001f54:	4b24      	ldr	r3, [pc, #144]	@ (8001fe8 <HAL_PWREx_ControlVoltageScaling+0x13c>)
 8001f56:	f8d3 3080 	ldr.w	r3, [r3, #128]	@ 0x80
 8001f5a:	4a23      	ldr	r2, [pc, #140]	@ (8001fe8 <HAL_PWREx_ControlVoltageScaling+0x13c>)
 8001f5c:	f443 7380 	orr.w	r3, r3, #256	@ 0x100
 8001f60:	f8c2 3080 	str.w	r3, [r2, #128]	@ 0x80

      /* Set Range 1 */
      MODIFY_REG(PWR->CR1, PWR_CR1_VOS, PWR_REGULATOR_VOLTAGE_SCALE1);
 8001f64:	4b20      	ldr	r3, [pc, #128]	@ (8001fe8 <HAL_PWREx_ControlVoltageScaling+0x13c>)
 8001f66:	681b      	ldr	r3, [r3, #0]
 8001f68:	f423 63c0 	bic.w	r3, r3, #1536	@ 0x600
 8001f6c:	4a1e      	ldr	r2, [pc, #120]	@ (8001fe8 <HAL_PWREx_ControlVoltageScaling+0x13c>)
 8001f6e:	f443 7300 	orr.w	r3, r3, #512	@ 0x200
 8001f72:	6013      	str	r3, [r2, #0]

      /* Wait until VOSF is cleared */
      wait_loop_index = ((PWR_FLAG_SETTING_DELAY_US * SystemCoreClock) / 1000000U) + 1;
 8001f74:	4b1d      	ldr	r3, [pc, #116]	@ (8001fec <HAL_PWREx_ControlVoltageScaling+0x140>)
 8001f76:	681b      	ldr	r3, [r3, #0]
 8001f78:	2232      	movs	r2, #50	@ 0x32
 8001f7a:	fb02 f303 	mul.w	r3, r2, r3
 8001f7e:	4a1c      	ldr	r2, [pc, #112]	@ (8001ff0 <HAL_PWREx_ControlVoltageScaling+0x144>)
 8001f80:	fba2 2303 	umull	r2, r3, r2, r3
 8001f84:	0c9b      	lsrs	r3, r3, #18
 8001f86:	3301      	adds	r3, #1
 8001f88:	60fb      	str	r3, [r7, #12]
      while ((HAL_IS_BIT_SET(PWR->SR2, PWR_SR2_VOSF)) && (wait_loop_index != 0U))
 8001f8a:	e002      	b.n	8001f92 <HAL_PWREx_ControlVoltageScaling+0xe6>
      {
        wait_loop_index--;
 8001f8c:	68fb      	ldr	r3, [r7, #12]
 8001f8e:	3b01      	subs	r3, #1
 8001f90:	60fb      	str	r3, [r7, #12]
      while ((HAL_IS_BIT_SET(PWR->SR2, PWR_SR2_VOSF)) && (wait_loop_index != 0U))
 8001f92:	4b15      	ldr	r3, [pc, #84]	@ (8001fe8 <HAL_PWREx_ControlVoltageScaling+0x13c>)
 8001f94:	695b      	ldr	r3, [r3, #20]
 8001f96:	f403 6380 	and.w	r3, r3, #1024	@ 0x400
 8001f9a:	f5b3 6f80 	cmp.w	r3, #1024	@ 0x400
 8001f9e:	d102      	bne.n	8001fa6 <HAL_PWREx_ControlVoltageScaling+0xfa>
 8001fa0:	68fb      	ldr	r3, [r7, #12]
 8001fa2:	2b00      	cmp	r3, #0
 8001fa4:	d1f2      	bne.n	8001f8c <HAL_PWREx_ControlVoltageScaling+0xe0>
      }
      if (HAL_IS_BIT_SET(PWR->SR2, PWR_SR2_VOSF))
 8001fa6:	4b10      	ldr	r3, [pc, #64]	@ (8001fe8 <HAL_PWREx_ControlVoltageScaling+0x13c>)
 8001fa8:	695b      	ldr	r3, [r3, #20]
 8001faa:	f403 6380 	and.w	r3, r3, #1024	@ 0x400
 8001fae:	f5b3 6f80 	cmp.w	r3, #1024	@ 0x400
 8001fb2:	d112      	bne.n	8001fda <HAL_PWREx_ControlVoltageScaling+0x12e>
      {
        return HAL_TIMEOUT;
 8001fb4:	2303      	movs	r3, #3
 8001fb6:	e011      	b.n	8001fdc <HAL_PWREx_ControlVoltageScaling+0x130>
    }
     /* If current range is range 1 normal or boost mode */
    else
    {
      /* Disable Range 1 Boost (no issue if bit already set) */
      SET_BIT(PWR->CR5, PWR_CR5_R1MODE);
 8001fb8:	4b0b      	ldr	r3, [pc, #44]	@ (8001fe8 <HAL_PWREx_ControlVoltageScaling+0x13c>)
 8001fba:	f8d3 3080 	ldr.w	r3, [r3, #128]	@ 0x80
 8001fbe:	4a0a      	ldr	r2, [pc, #40]	@ (8001fe8 <HAL_PWREx_ControlVoltageScaling+0x13c>)
 8001fc0:	f443 7380 	orr.w	r3, r3, #256	@ 0x100
 8001fc4:	f8c2 3080 	str.w	r3, [r2, #128]	@ 0x80
 8001fc8:	e007      	b.n	8001fda <HAL_PWREx_ControlVoltageScaling+0x12e>
    }
  }
  else
  {
    /* Set Range 2 */
    MODIFY_REG(PWR->CR1, PWR_CR1_VOS, PWR_REGULATOR_VOLTAGE_SCALE2);
 8001fca:	4b07      	ldr	r3, [pc, #28]	@ (8001fe8 <HAL_PWREx_ControlVoltageScaling+0x13c>)
 8001fcc:	681b      	ldr	r3, [r3, #0]
 8001fce:	f423 63c0 	bic.w	r3, r3, #1536	@ 0x600
 8001fd2:	4a05      	ldr	r2, [pc, #20]	@ (8001fe8 <HAL_PWREx_ControlVoltageScaling+0x13c>)
 8001fd4:	f443 6380 	orr.w	r3, r3, #1024	@ 0x400
 8001fd8:	6013      	str	r3, [r2, #0]
      /* No need to wait for VOSF to be cleared for this transition */
    }
  }
#endif

  return HAL_OK;
 8001fda:	2300      	movs	r3, #0
}
 8001fdc:	4618      	mov	r0, r3
 8001fde:	3714      	adds	r7, #20
 8001fe0:	46bd      	mov	sp, r7
 8001fe2:	f85d 7b04 	ldr.w	r7, [sp], #4
 8001fe6:	4770      	bx	lr
 8001fe8:	40007000 	.word	0x40007000
 8001fec:	20000000 	.word	0x20000000
 8001ff0:	431bde83 	.word	0x431bde83

08001ff4 <HAL_RCC_OscConfig>:
  * @note   If HSE failed to start, HSE should be disabled before recalling
            HAL_RCC_OscConfig().
  * @retval HAL status
  */
HAL_StatusTypeDef HAL_RCC_OscConfig(RCC_OscInitTypeDef  *RCC_OscInitStruct)
{
 8001ff4:	b580      	push	{r7, lr}
 8001ff6:	b088      	sub	sp, #32
 8001ff8:	af00      	add	r7, sp, #0
 8001ffa:	6078      	str	r0, [r7, #4]
  uint32_t tickstart;
  HAL_StatusTypeDef status;
  uint32_t sysclk_source, pll_config;

  /* Check Null pointer */
  if(RCC_OscInitStruct == NULL)
 8001ffc:	687b      	ldr	r3, [r7, #4]
 8001ffe:	2b00      	cmp	r3, #0
 8002000:	d102      	bne.n	8002008 <HAL_RCC_OscConfig+0x14>
  {
    return HAL_ERROR;
 8002002:	2301      	movs	r3, #1
 8002004:	f000 bc08 	b.w	8002818 <HAL_RCC_OscConfig+0x824>
  }

  /* Check the parameters */
  assert_param(IS_RCC_OSCILLATORTYPE(RCC_OscInitStruct->OscillatorType));

  sysclk_source = __HAL_RCC_GET_SYSCLK_SOURCE();
 8002008:	4b96      	ldr	r3, [pc, #600]	@ (8002264 <HAL_RCC_OscConfig+0x270>)
 800200a:	689b      	ldr	r3, [r3, #8]
 800200c:	f003 030c 	and.w	r3, r3, #12
 8002010:	61bb      	str	r3, [r7, #24]
  pll_config = __HAL_RCC_GET_PLL_OSCSOURCE();
 8002012:	4b94      	ldr	r3, [pc, #592]	@ (8002264 <HAL_RCC_OscConfig+0x270>)
 8002014:	68db      	ldr	r3, [r3, #12]
 8002016:	f003 0303 	and.w	r3, r3, #3
 800201a:	617b      	str	r3, [r7, #20]

  /*----------------------------- MSI Configuration --------------------------*/
  if(((RCC_OscInitStruct->OscillatorType) & RCC_OSCILLATORTYPE_MSI) == RCC_OSCILLATORTYPE_MSI)
 800201c:	687b      	ldr	r3, [r7, #4]
 800201e:	681b      	ldr	r3, [r3, #0]
 8002020:	f003 0310 	and.w	r3, r3, #16
 8002024:	2b00      	cmp	r3, #0
 8002026:	f000 80e4 	beq.w	80021f2 <HAL_RCC_OscConfig+0x1fe>
    assert_param(IS_RCC_MSI(RCC_OscInitStruct->MSIState));
    assert_param(IS_RCC_MSICALIBRATION_VALUE(RCC_OscInitStruct->MSICalibrationValue));
    assert_param(IS_RCC_MSI_CLOCK_RANGE(RCC_OscInitStruct->MSIClockRange));

    /* Check if MSI is used as system clock or as PLL source when PLL is selected as system clock */
    if((sysclk_source == RCC_CFGR_SWS_MSI) ||
 800202a:	69bb      	ldr	r3, [r7, #24]
 800202c:	2b00      	cmp	r3, #0
 800202e:	d007      	beq.n	8002040 <HAL_RCC_OscConfig+0x4c>
 8002030:	69bb      	ldr	r3, [r7, #24]
 8002032:	2b0c      	cmp	r3, #12
 8002034:	f040 808b 	bne.w	800214e <HAL_RCC_OscConfig+0x15a>
       ((sysclk_source == RCC_CFGR_SWS_PLL) && (pll_config == RCC_PLLSOURCE_MSI)))
 8002038:	697b      	ldr	r3, [r7, #20]
 800203a:	2b01      	cmp	r3, #1
 800203c:	f040 8087 	bne.w	800214e <HAL_RCC_OscConfig+0x15a>
    {
      if((READ_BIT(RCC->CR, RCC_CR_MSIRDY) != 0U) && (RCC_OscInitStruct->MSIState == RCC_MSI_OFF))
 8002040:	4b88      	ldr	r3, [pc, #544]	@ (8002264 <HAL_RCC_OscConfig+0x270>)
 8002042:	681b      	ldr	r3, [r3, #0]
 8002044:	f003 0302 	and.w	r3, r3, #2
 8002048:	2b00      	cmp	r3, #0
 800204a:	d005      	beq.n	8002058 <HAL_RCC_OscConfig+0x64>
 800204c:	687b      	ldr	r3, [r7, #4]
 800204e:	699b      	ldr	r3, [r3, #24]
 8002050:	2b00      	cmp	r3, #0
 8002052:	d101      	bne.n	8002058 <HAL_RCC_OscConfig+0x64>
      {
        return HAL_ERROR;
 8002054:	2301      	movs	r3, #1
 8002056:	e3df      	b.n	8002818 <HAL_RCC_OscConfig+0x824>
      else
      {
        /* To correctly read data from FLASH memory, the number of wait states (LATENCY)
           must be correctly programmed according to the frequency of the CPU clock
           (HCLK) and the supply voltage of the device. */
        if(RCC_OscInitStruct->MSIClockRange > __HAL_RCC_GET_MSI_RANGE())
 8002058:	687b      	ldr	r3, [r7, #4]
 800205a:	6a1a      	ldr	r2, [r3, #32]
 800205c:	4b81      	ldr	r3, [pc, #516]	@ (8002264 <HAL_RCC_OscConfig+0x270>)
 800205e:	681b      	ldr	r3, [r3, #0]
 8002060:	f003 0308 	and.w	r3, r3, #8
 8002064:	2b00      	cmp	r3, #0
 8002066:	d004      	beq.n	8002072 <HAL_RCC_OscConfig+0x7e>
 8002068:	4b7e      	ldr	r3, [pc, #504]	@ (8002264 <HAL_RCC_OscConfig+0x270>)
 800206a:	681b      	ldr	r3, [r3, #0]
 800206c:	f003 03f0 	and.w	r3, r3, #240	@ 0xf0
 8002070:	e005      	b.n	800207e <HAL_RCC_OscConfig+0x8a>
 8002072:	4b7c      	ldr	r3, [pc, #496]	@ (8002264 <HAL_RCC_OscConfig+0x270>)
 8002074:	f8d3 3094 	ldr.w	r3, [r3, #148]	@ 0x94
 8002078:	091b      	lsrs	r3, r3, #4
 800207a:	f003 03f0 	and.w	r3, r3, #240	@ 0xf0
 800207e:	4293      	cmp	r3, r2
 8002080:	d223      	bcs.n	80020ca <HAL_RCC_OscConfig+0xd6>
        {
          /* First increase number of wait states update if necessary */
          if(RCC_SetFlashLatencyFromMSIRange(RCC_OscInitStruct->MSIClockRange) != HAL_OK)
 8002082:	687b      	ldr	r3, [r7, #4]
 8002084:	6a1b      	ldr	r3, [r3, #32]
 8002086:	4618      	mov	r0, r3
 8002088:	f000 fd94 	bl	8002bb4 <RCC_SetFlashLatencyFromMSIRange>
 800208c:	4603      	mov	r3, r0
 800208e:	2b00      	cmp	r3, #0
 8002090:	d001      	beq.n	8002096 <HAL_RCC_OscConfig+0xa2>
          {
            return HAL_ERROR;
 8002092:	2301      	movs	r3, #1
 8002094:	e3c0      	b.n	8002818 <HAL_RCC_OscConfig+0x824>
          }

          /* Selects the Multiple Speed oscillator (MSI) clock range .*/
          __HAL_RCC_MSI_RANGE_CONFIG(RCC_OscInitStruct->MSIClockRange);
 8002096:	4b73      	ldr	r3, [pc, #460]	@ (8002264 <HAL_RCC_OscConfig+0x270>)
 8002098:	681b      	ldr	r3, [r3, #0]
 800209a:	4a72      	ldr	r2, [pc, #456]	@ (8002264 <HAL_RCC_OscConfig+0x270>)
 800209c:	f043 0308 	orr.w	r3, r3, #8
 80020a0:	6013      	str	r3, [r2, #0]
 80020a2:	4b70      	ldr	r3, [pc, #448]	@ (8002264 <HAL_RCC_OscConfig+0x270>)
 80020a4:	681b      	ldr	r3, [r3, #0]
 80020a6:	f023 02f0 	bic.w	r2, r3, #240	@ 0xf0
 80020aa:	687b      	ldr	r3, [r7, #4]
 80020ac:	6a1b      	ldr	r3, [r3, #32]
 80020ae:	496d      	ldr	r1, [pc, #436]	@ (8002264 <HAL_RCC_OscConfig+0x270>)
 80020b0:	4313      	orrs	r3, r2
 80020b2:	600b      	str	r3, [r1, #0]
          /* Adjusts the Multiple Speed oscillator (MSI) calibration value.*/
          __HAL_RCC_MSI_CALIBRATIONVALUE_ADJUST(RCC_OscInitStruct->MSICalibrationValue);
 80020b4:	4b6b      	ldr	r3, [pc, #428]	@ (8002264 <HAL_RCC_OscConfig+0x270>)
 80020b6:	685b      	ldr	r3, [r3, #4]
 80020b8:	f423 427f 	bic.w	r2, r3, #65280	@ 0xff00
 80020bc:	687b      	ldr	r3, [r7, #4]
 80020be:	69db      	ldr	r3, [r3, #28]
 80020c0:	021b      	lsls	r3, r3, #8
 80020c2:	4968      	ldr	r1, [pc, #416]	@ (8002264 <HAL_RCC_OscConfig+0x270>)
 80020c4:	4313      	orrs	r3, r2
 80020c6:	604b      	str	r3, [r1, #4]
 80020c8:	e025      	b.n	8002116 <HAL_RCC_OscConfig+0x122>
        }
        else
        {
          /* Else, keep current flash latency while decreasing applies */
          /* Selects the Multiple Speed oscillator (MSI) clock range .*/
          __HAL_RCC_MSI_RANGE_CONFIG(RCC_OscInitStruct->MSIClockRange);
 80020ca:	4b66      	ldr	r3, [pc, #408]	@ (8002264 <HAL_RCC_OscConfig+0x270>)
 80020cc:	681b      	ldr	r3, [r3, #0]
 80020ce:	4a65      	ldr	r2, [pc, #404]	@ (8002264 <HAL_RCC_OscConfig+0x270>)
 80020d0:	f043 0308 	orr.w	r3, r3, #8
 80020d4:	6013      	str	r3, [r2, #0]
 80020d6:	4b63      	ldr	r3, [pc, #396]	@ (8002264 <HAL_RCC_OscConfig+0x270>)
 80020d8:	681b      	ldr	r3, [r3, #0]
 80020da:	f023 02f0 	bic.w	r2, r3, #240	@ 0xf0
 80020de:	687b      	ldr	r3, [r7, #4]
 80020e0:	6a1b      	ldr	r3, [r3, #32]
 80020e2:	4960      	ldr	r1, [pc, #384]	@ (8002264 <HAL_RCC_OscConfig+0x270>)
 80020e4:	4313      	orrs	r3, r2
 80020e6:	600b      	str	r3, [r1, #0]
          /* Adjusts the Multiple Speed oscillator (MSI) calibration value.*/
          __HAL_RCC_MSI_CALIBRATIONVALUE_ADJUST(RCC_OscInitStruct->MSICalibrationValue);
 80020e8:	4b5e      	ldr	r3, [pc, #376]	@ (8002264 <HAL_RCC_OscConfig+0x270>)
 80020ea:	685b      	ldr	r3, [r3, #4]
 80020ec:	f423 427f 	bic.w	r2, r3, #65280	@ 0xff00
 80020f0:	687b      	ldr	r3, [r7, #4]
 80020f2:	69db      	ldr	r3, [r3, #28]
 80020f4:	021b      	lsls	r3, r3, #8
 80020f6:	495b      	ldr	r1, [pc, #364]	@ (8002264 <HAL_RCC_OscConfig+0x270>)
 80020f8:	4313      	orrs	r3, r2
 80020fa:	604b      	str	r3, [r1, #4]

          /* Decrease number of wait states update if necessary */
          /* Only possible when MSI is the System clock source  */
          if(sysclk_source == RCC_CFGR_SWS_MSI)
 80020fc:	69bb      	ldr	r3, [r7, #24]
 80020fe:	2b00      	cmp	r3, #0
 8002100:	d109      	bne.n	8002116 <HAL_RCC_OscConfig+0x122>
          {
            if(RCC_SetFlashLatencyFromMSIRange(RCC_OscInitStruct->MSIClockRange) != HAL_OK)
 8002102:	687b      	ldr	r3, [r7, #4]
 8002104:	6a1b      	ldr	r3, [r3, #32]
 8002106:	4618      	mov	r0, r3
 8002108:	f000 fd54 	bl	8002bb4 <RCC_SetFlashLatencyFromMSIRange>
 800210c:	4603      	mov	r3, r0
 800210e:	2b00      	cmp	r3, #0
 8002110:	d001      	beq.n	8002116 <HAL_RCC_OscConfig+0x122>
            {
              return HAL_ERROR;
 8002112:	2301      	movs	r3, #1
 8002114:	e380      	b.n	8002818 <HAL_RCC_OscConfig+0x824>
            }
          }
        }

        /* Update the SystemCoreClock global variable */
        SystemCoreClock = HAL_RCC_GetSysClockFreq() >> (AHBPrescTable[READ_BIT(RCC->CFGR, RCC_CFGR_HPRE) >> RCC_CFGR_HPRE_Pos] & 0x1FU);
 8002116:	f000 fcc1 	bl	8002a9c <HAL_RCC_GetSysClockFreq>
 800211a:	4602      	mov	r2, r0
 800211c:	4b51      	ldr	r3, [pc, #324]	@ (8002264 <HAL_RCC_OscConfig+0x270>)
 800211e:	689b      	ldr	r3, [r3, #8]
 8002120:	091b      	lsrs	r3, r3, #4
 8002122:	f003 030f 	and.w	r3, r3, #15
 8002126:	4950      	ldr	r1, [pc, #320]	@ (8002268 <HAL_RCC_OscConfig+0x274>)
 8002128:	5ccb      	ldrb	r3, [r1, r3]
 800212a:	f003 031f 	and.w	r3, r3, #31
 800212e:	fa22 f303 	lsr.w	r3, r2, r3
 8002132:	4a4e      	ldr	r2, [pc, #312]	@ (800226c <HAL_RCC_OscConfig+0x278>)
 8002134:	6013      	str	r3, [r2, #0]

        /* Configure the source of time base considering new system clocks settings*/
        status = HAL_InitTick(uwTickPrio);
 8002136:	4b4e      	ldr	r3, [pc, #312]	@ (8002270 <HAL_RCC_OscConfig+0x27c>)
 8002138:	681b      	ldr	r3, [r3, #0]
 800213a:	4618      	mov	r0, r3
 800213c:	f7fe fac4 	bl	80006c8 <HAL_InitTick>
 8002140:	4603      	mov	r3, r0
 8002142:	73fb      	strb	r3, [r7, #15]
        if(status != HAL_OK)
 8002144:	7bfb      	ldrb	r3, [r7, #15]
 8002146:	2b00      	cmp	r3, #0
 8002148:	d052      	beq.n	80021f0 <HAL_RCC_OscConfig+0x1fc>
        {
          return status;
 800214a:	7bfb      	ldrb	r3, [r7, #15]
 800214c:	e364      	b.n	8002818 <HAL_RCC_OscConfig+0x824>
      }
    }
    else
    {
      /* Check the MSI State */
      if(RCC_OscInitStruct->MSIState != RCC_MSI_OFF)
 800214e:	687b      	ldr	r3, [r7, #4]
 8002150:	699b      	ldr	r3, [r3, #24]
 8002152:	2b00      	cmp	r3, #0
 8002154:	d032      	beq.n	80021bc <HAL_RCC_OscConfig+0x1c8>
      {
        /* Enable the Internal High Speed oscillator (MSI). */
        __HAL_RCC_MSI_ENABLE();
 8002156:	4b43      	ldr	r3, [pc, #268]	@ (8002264 <HAL_RCC_OscConfig+0x270>)
 8002158:	681b      	ldr	r3, [r3, #0]
 800215a:	4a42      	ldr	r2, [pc, #264]	@ (8002264 <HAL_RCC_OscConfig+0x270>)
 800215c:	f043 0301 	orr.w	r3, r3, #1
 8002160:	6013      	str	r3, [r2, #0]

        /* Get timeout */
        tickstart = HAL_GetTick();
 8002162:	f7fe fb01 	bl	8000768 <HAL_GetTick>
 8002166:	6138      	str	r0, [r7, #16]

        /* Wait till MSI is ready */
        while(READ_BIT(RCC->CR, RCC_CR_MSIRDY) == 0U)
 8002168:	e008      	b.n	800217c <HAL_RCC_OscConfig+0x188>
        {
          if((HAL_GetTick() - tickstart) > MSI_TIMEOUT_VALUE)
 800216a:	f7fe fafd 	bl	8000768 <HAL_GetTick>
 800216e:	4602      	mov	r2, r0
 8002170:	693b      	ldr	r3, [r7, #16]
 8002172:	1ad3      	subs	r3, r2, r3
 8002174:	2b02      	cmp	r3, #2
 8002176:	d901      	bls.n	800217c <HAL_RCC_OscConfig+0x188>
          {
            return HAL_TIMEOUT;
 8002178:	2303      	movs	r3, #3
 800217a:	e34d      	b.n	8002818 <HAL_RCC_OscConfig+0x824>
        while(READ_BIT(RCC->CR, RCC_CR_MSIRDY) == 0U)
 800217c:	4b39      	ldr	r3, [pc, #228]	@ (8002264 <HAL_RCC_OscConfig+0x270>)
 800217e:	681b      	ldr	r3, [r3, #0]
 8002180:	f003 0302 	and.w	r3, r3, #2
 8002184:	2b00      	cmp	r3, #0
 8002186:	d0f0      	beq.n	800216a <HAL_RCC_OscConfig+0x176>
          }
        }
         /* Selects the Multiple Speed oscillator (MSI) clock range .*/
        __HAL_RCC_MSI_RANGE_CONFIG(RCC_OscInitStruct->MSIClockRange);
 8002188:	4b36      	ldr	r3, [pc, #216]	@ (8002264 <HAL_RCC_OscConfig+0x270>)
 800218a:	681b      	ldr	r3, [r3, #0]
 800218c:	4a35      	ldr	r2, [pc, #212]	@ (8002264 <HAL_RCC_OscConfig+0x270>)
 800218e:	f043 0308 	orr.w	r3, r3, #8
 8002192:	6013      	str	r3, [r2, #0]
 8002194:	4b33      	ldr	r3, [pc, #204]	@ (8002264 <HAL_RCC_OscConfig+0x270>)
 8002196:	681b      	ldr	r3, [r3, #0]
 8002198:	f023 02f0 	bic.w	r2, r3, #240	@ 0xf0
 800219c:	687b      	ldr	r3, [r7, #4]
 800219e:	6a1b      	ldr	r3, [r3, #32]
 80021a0:	4930      	ldr	r1, [pc, #192]	@ (8002264 <HAL_RCC_OscConfig+0x270>)
 80021a2:	4313      	orrs	r3, r2
 80021a4:	600b      	str	r3, [r1, #0]
         /* Adjusts the Multiple Speed oscillator (MSI) calibration value.*/
        __HAL_RCC_MSI_CALIBRATIONVALUE_ADJUST(RCC_OscInitStruct->MSICalibrationValue);
 80021a6:	4b2f      	ldr	r3, [pc, #188]	@ (8002264 <HAL_RCC_OscConfig+0x270>)
 80021a8:	685b      	ldr	r3, [r3, #4]
 80021aa:	f423 427f 	bic.w	r2, r3, #65280	@ 0xff00
 80021ae:	687b      	ldr	r3, [r7, #4]
 80021b0:	69db      	ldr	r3, [r3, #28]
 80021b2:	021b      	lsls	r3, r3, #8
 80021b4:	492b      	ldr	r1, [pc, #172]	@ (8002264 <HAL_RCC_OscConfig+0x270>)
 80021b6:	4313      	orrs	r3, r2
 80021b8:	604b      	str	r3, [r1, #4]
 80021ba:	e01a      	b.n	80021f2 <HAL_RCC_OscConfig+0x1fe>

      }
      else
      {
        /* Disable the Internal High Speed oscillator (MSI). */
        __HAL_RCC_MSI_DISABLE();
 80021bc:	4b29      	ldr	r3, [pc, #164]	@ (8002264 <HAL_RCC_OscConfig+0x270>)
 80021be:	681b      	ldr	r3, [r3, #0]
 80021c0:	4a28      	ldr	r2, [pc, #160]	@ (8002264 <HAL_RCC_OscConfig+0x270>)
 80021c2:	f023 0301 	bic.w	r3, r3, #1
 80021c6:	6013      	str	r3, [r2, #0]

        /* Get timeout */
        tickstart = HAL_GetTick();
 80021c8:	f7fe face 	bl	8000768 <HAL_GetTick>
 80021cc:	6138      	str	r0, [r7, #16]

        /* Wait till MSI is ready */
        while(READ_BIT(RCC->CR, RCC_CR_MSIRDY) != 0U)
 80021ce:	e008      	b.n	80021e2 <HAL_RCC_OscConfig+0x1ee>
        {
          if((HAL_GetTick() - tickstart) > MSI_TIMEOUT_VALUE)
 80021d0:	f7fe faca 	bl	8000768 <HAL_GetTick>
 80021d4:	4602      	mov	r2, r0
 80021d6:	693b      	ldr	r3, [r7, #16]
 80021d8:	1ad3      	subs	r3, r2, r3
 80021da:	2b02      	cmp	r3, #2
 80021dc:	d901      	bls.n	80021e2 <HAL_RCC_OscConfig+0x1ee>
          {
            return HAL_TIMEOUT;
 80021de:	2303      	movs	r3, #3
 80021e0:	e31a      	b.n	8002818 <HAL_RCC_OscConfig+0x824>
        while(READ_BIT(RCC->CR, RCC_CR_MSIRDY) != 0U)
 80021e2:	4b20      	ldr	r3, [pc, #128]	@ (8002264 <HAL_RCC_OscConfig+0x270>)
 80021e4:	681b      	ldr	r3, [r3, #0]
 80021e6:	f003 0302 	and.w	r3, r3, #2
 80021ea:	2b00      	cmp	r3, #0
 80021ec:	d1f0      	bne.n	80021d0 <HAL_RCC_OscConfig+0x1dc>
 80021ee:	e000      	b.n	80021f2 <HAL_RCC_OscConfig+0x1fe>
      if((READ_BIT(RCC->CR, RCC_CR_MSIRDY) != 0U) && (RCC_OscInitStruct->MSIState == RCC_MSI_OFF))
 80021f0:	bf00      	nop
        }
      }
    }
  }
  /*------------------------------- HSE Configuration ------------------------*/
  if(((RCC_OscInitStruct->OscillatorType) & RCC_OSCILLATORTYPE_HSE) == RCC_OSCILLATORTYPE_HSE)
 80021f2:	687b      	ldr	r3, [r7, #4]
 80021f4:	681b      	ldr	r3, [r3, #0]
 80021f6:	f003 0301 	and.w	r3, r3, #1
 80021fa:	2b00      	cmp	r3, #0
 80021fc:	d073      	beq.n	80022e6 <HAL_RCC_OscConfig+0x2f2>
  {
    /* Check the parameters */
    assert_param(IS_RCC_HSE(RCC_OscInitStruct->HSEState));

    /* When the HSE is used as system clock or clock source for PLL in these cases it is not allowed to be disabled */
    if((sysclk_source == RCC_CFGR_SWS_HSE) ||
 80021fe:	69bb      	ldr	r3, [r7, #24]
 8002200:	2b08      	cmp	r3, #8
 8002202:	d005      	beq.n	8002210 <HAL_RCC_OscConfig+0x21c>
 8002204:	69bb      	ldr	r3, [r7, #24]
 8002206:	2b0c      	cmp	r3, #12
 8002208:	d10e      	bne.n	8002228 <HAL_RCC_OscConfig+0x234>
       ((sysclk_source == RCC_CFGR_SWS_PLL) && (pll_config == RCC_PLLSOURCE_HSE)))
 800220a:	697b      	ldr	r3, [r7, #20]
 800220c:	2b03      	cmp	r3, #3
 800220e:	d10b      	bne.n	8002228 <HAL_RCC_OscConfig+0x234>
    {
      if((READ_BIT(RCC->CR, RCC_CR_HSERDY) != 0U) && (RCC_OscInitStruct->HSEState == RCC_HSE_OFF))
 8002210:	4b14      	ldr	r3, [pc, #80]	@ (8002264 <HAL_RCC_OscConfig+0x270>)
 8002212:	681b      	ldr	r3, [r3, #0]
 8002214:	f403 3300 	and.w	r3, r3, #131072	@ 0x20000
 8002218:	2b00      	cmp	r3, #0
 800221a:	d063      	beq.n	80022e4 <HAL_RCC_OscConfig+0x2f0>
 800221c:	687b      	ldr	r3, [r7, #4]
 800221e:	685b      	ldr	r3, [r3, #4]
 8002220:	2b00      	cmp	r3, #0
 8002222:	d15f      	bne.n	80022e4 <HAL_RCC_OscConfig+0x2f0>
      {
        return HAL_ERROR;
 8002224:	2301      	movs	r3, #1
 8002226:	e2f7      	b.n	8002818 <HAL_RCC_OscConfig+0x824>
      }
    }
    else
    {
      /* Set the new HSE configuration ---------------------------------------*/
      __HAL_RCC_HSE_CONFIG(RCC_OscInitStruct->HSEState);
 8002228:	687b      	ldr	r3, [r7, #4]
 800222a:	685b      	ldr	r3, [r3, #4]
 800222c:	f5b3 3f80 	cmp.w	r3, #65536	@ 0x10000
 8002230:	d106      	bne.n	8002240 <HAL_RCC_OscConfig+0x24c>
 8002232:	4b0c      	ldr	r3, [pc, #48]	@ (8002264 <HAL_RCC_OscConfig+0x270>)
 8002234:	681b      	ldr	r3, [r3, #0]
 8002236:	4a0b      	ldr	r2, [pc, #44]	@ (8002264 <HAL_RCC_OscConfig+0x270>)
 8002238:	f443 3380 	orr.w	r3, r3, #65536	@ 0x10000
 800223c:	6013      	str	r3, [r2, #0]
 800223e:	e025      	b.n	800228c <HAL_RCC_OscConfig+0x298>
 8002240:	687b      	ldr	r3, [r7, #4]
 8002242:	685b      	ldr	r3, [r3, #4]
 8002244:	f5b3 2fa0 	cmp.w	r3, #327680	@ 0x50000
 8002248:	d114      	bne.n	8002274 <HAL_RCC_OscConfig+0x280>
 800224a:	4b06      	ldr	r3, [pc, #24]	@ (8002264 <HAL_RCC_OscConfig+0x270>)
 800224c:	681b      	ldr	r3, [r3, #0]
 800224e:	4a05      	ldr	r2, [pc, #20]	@ (8002264 <HAL_RCC_OscConfig+0x270>)
 8002250:	f443 2380 	orr.w	r3, r3, #262144	@ 0x40000
 8002254:	6013      	str	r3, [r2, #0]
 8002256:	4b03      	ldr	r3, [pc, #12]	@ (8002264 <HAL_RCC_OscConfig+0x270>)
 8002258:	681b      	ldr	r3, [r3, #0]
 800225a:	4a02      	ldr	r2, [pc, #8]	@ (8002264 <HAL_RCC_OscConfig+0x270>)
 800225c:	f443 3380 	orr.w	r3, r3, #65536	@ 0x10000
 8002260:	6013      	str	r3, [r2, #0]
 8002262:	e013      	b.n	800228c <HAL_RCC_OscConfig+0x298>
 8002264:	40021000 	.word	0x40021000
 8002268:	080037d4 	.word	0x080037d4
 800226c:	20000000 	.word	0x20000000
 8002270:	20000004 	.word	0x20000004
 8002274:	4ba0      	ldr	r3, [pc, #640]	@ (80024f8 <HAL_RCC_OscConfig+0x504>)
 8002276:	681b      	ldr	r3, [r3, #0]
 8002278:	4a9f      	ldr	r2, [pc, #636]	@ (80024f8 <HAL_RCC_OscConfig+0x504>)
 800227a:	f423 3380 	bic.w	r3, r3, #65536	@ 0x10000
 800227e:	6013      	str	r3, [r2, #0]
 8002280:	4b9d      	ldr	r3, [pc, #628]	@ (80024f8 <HAL_RCC_OscConfig+0x504>)
 8002282:	681b      	ldr	r3, [r3, #0]
 8002284:	4a9c      	ldr	r2, [pc, #624]	@ (80024f8 <HAL_RCC_OscConfig+0x504>)
 8002286:	f423 2380 	bic.w	r3, r3, #262144	@ 0x40000
 800228a:	6013      	str	r3, [r2, #0]

      /* Check the HSE State */
      if(RCC_OscInitStruct->HSEState != RCC_HSE_OFF)
 800228c:	687b      	ldr	r3, [r7, #4]
 800228e:	685b      	ldr	r3, [r3, #4]
 8002290:	2b00      	cmp	r3, #0
 8002292:	d013      	beq.n	80022bc <HAL_RCC_OscConfig+0x2c8>
      {
        /* Get Start Tick*/
        tickstart = HAL_GetTick();
 8002294:	f7fe fa68 	bl	8000768 <HAL_GetTick>
 8002298:	6138      	str	r0, [r7, #16]

        /* Wait till HSE is ready */
        while(READ_BIT(RCC->CR, RCC_CR_HSERDY) == 0U)
 800229a:	e008      	b.n	80022ae <HAL_RCC_OscConfig+0x2ba>
        {
          if((HAL_GetTick() - tickstart) > HSE_TIMEOUT_VALUE)
 800229c:	f7fe fa64 	bl	8000768 <HAL_GetTick>
 80022a0:	4602      	mov	r2, r0
 80022a2:	693b      	ldr	r3, [r7, #16]
 80022a4:	1ad3      	subs	r3, r2, r3
 80022a6:	2b64      	cmp	r3, #100	@ 0x64
 80022a8:	d901      	bls.n	80022ae <HAL_RCC_OscConfig+0x2ba>
          {
            return HAL_TIMEOUT;
 80022aa:	2303      	movs	r3, #3
 80022ac:	e2b4      	b.n	8002818 <HAL_RCC_OscConfig+0x824>
        while(READ_BIT(RCC->CR, RCC_CR_HSERDY) == 0U)
 80022ae:	4b92      	ldr	r3, [pc, #584]	@ (80024f8 <HAL_RCC_OscConfig+0x504>)
 80022b0:	681b      	ldr	r3, [r3, #0]
 80022b2:	f403 3300 	and.w	r3, r3, #131072	@ 0x20000
 80022b6:	2b00      	cmp	r3, #0
 80022b8:	d0f0      	beq.n	800229c <HAL_RCC_OscConfig+0x2a8>
 80022ba:	e014      	b.n	80022e6 <HAL_RCC_OscConfig+0x2f2>
        }
      }
      else
      {
        /* Get Start Tick*/
        tickstart = HAL_GetTick();
 80022bc:	f7fe fa54 	bl	8000768 <HAL_GetTick>
 80022c0:	6138      	str	r0, [r7, #16]

        /* Wait till HSE is disabled */
        while(READ_BIT(RCC->CR, RCC_CR_HSERDY) != 0U)
 80022c2:	e008      	b.n	80022d6 <HAL_RCC_OscConfig+0x2e2>
        {
          if((HAL_GetTick() - tickstart) > HSE_TIMEOUT_VALUE)
 80022c4:	f7fe fa50 	bl	8000768 <HAL_GetTick>
 80022c8:	4602      	mov	r2, r0
 80022ca:	693b      	ldr	r3, [r7, #16]
 80022cc:	1ad3      	subs	r3, r2, r3
 80022ce:	2b64      	cmp	r3, #100	@ 0x64
 80022d0:	d901      	bls.n	80022d6 <HAL_RCC_OscConfig+0x2e2>
          {
            return HAL_TIMEOUT;
 80022d2:	2303      	movs	r3, #3
 80022d4:	e2a0      	b.n	8002818 <HAL_RCC_OscConfig+0x824>
        while(READ_BIT(RCC->CR, RCC_CR_HSERDY) != 0U)
 80022d6:	4b88      	ldr	r3, [pc, #544]	@ (80024f8 <HAL_RCC_OscConfig+0x504>)
 80022d8:	681b      	ldr	r3, [r3, #0]
 80022da:	f403 3300 	and.w	r3, r3, #131072	@ 0x20000
 80022de:	2b00      	cmp	r3, #0
 80022e0:	d1f0      	bne.n	80022c4 <HAL_RCC_OscConfig+0x2d0>
 80022e2:	e000      	b.n	80022e6 <HAL_RCC_OscConfig+0x2f2>
      if((READ_BIT(RCC->CR, RCC_CR_HSERDY) != 0U) && (RCC_OscInitStruct->HSEState == RCC_HSE_OFF))
 80022e4:	bf00      	nop
        }
      }
    }
  }
  /*----------------------------- HSI Configuration --------------------------*/
  if(((RCC_OscInitStruct->OscillatorType) & RCC_OSCILLATORTYPE_HSI) == RCC_OSCILLATORTYPE_HSI)
 80022e6:	687b      	ldr	r3, [r7, #4]
 80022e8:	681b      	ldr	r3, [r3, #0]
 80022ea:	f003 0302 	and.w	r3, r3, #2
 80022ee:	2b00      	cmp	r3, #0
 80022f0:	d060      	beq.n	80023b4 <HAL_RCC_OscConfig+0x3c0>
    /* Check the parameters */
    assert_param(IS_RCC_HSI(RCC_OscInitStruct->HSIState));
    assert_param(IS_RCC_HSI_CALIBRATION_VALUE(RCC_OscInitStruct->HSICalibrationValue));

    /* Check if HSI is used as system clock or as PLL source when PLL is selected as system clock */
    if((sysclk_source == RCC_CFGR_SWS_HSI) ||
 80022f2:	69bb      	ldr	r3, [r7, #24]
 80022f4:	2b04      	cmp	r3, #4
 80022f6:	d005      	beq.n	8002304 <HAL_RCC_OscConfig+0x310>
 80022f8:	69bb      	ldr	r3, [r7, #24]
 80022fa:	2b0c      	cmp	r3, #12
 80022fc:	d119      	bne.n	8002332 <HAL_RCC_OscConfig+0x33e>
       ((sysclk_source == RCC_CFGR_SWS_PLL) && (pll_config == RCC_PLLSOURCE_HSI)))
 80022fe:	697b      	ldr	r3, [r7, #20]
 8002300:	2b02      	cmp	r3, #2
 8002302:	d116      	bne.n	8002332 <HAL_RCC_OscConfig+0x33e>
    {
      /* When HSI is used as system clock it will not be disabled */
      if((READ_BIT(RCC->CR, RCC_CR_HSIRDY) != 0U) && (RCC_OscInitStruct->HSIState == RCC_HSI_OFF))
 8002304:	4b7c      	ldr	r3, [pc, #496]	@ (80024f8 <HAL_RCC_OscConfig+0x504>)
 8002306:	681b      	ldr	r3, [r3, #0]
 8002308:	f403 6380 	and.w	r3, r3, #1024	@ 0x400
 800230c:	2b00      	cmp	r3, #0
 800230e:	d005      	beq.n	800231c <HAL_RCC_OscConfig+0x328>
 8002310:	687b      	ldr	r3, [r7, #4]
 8002312:	68db      	ldr	r3, [r3, #12]
 8002314:	2b00      	cmp	r3, #0
 8002316:	d101      	bne.n	800231c <HAL_RCC_OscConfig+0x328>
      {
        return HAL_ERROR;
 8002318:	2301      	movs	r3, #1
 800231a:	e27d      	b.n	8002818 <HAL_RCC_OscConfig+0x824>
      }
      /* Otherwise, just the calibration is allowed */
      else
      {
        /* Adjusts the Internal High Speed oscillator (HSI) calibration value.*/
        __HAL_RCC_HSI_CALIBRATIONVALUE_ADJUST(RCC_OscInitStruct->HSICalibrationValue);
 800231c:	4b76      	ldr	r3, [pc, #472]	@ (80024f8 <HAL_RCC_OscConfig+0x504>)
 800231e:	685b      	ldr	r3, [r3, #4]
 8002320:	f023 42fe 	bic.w	r2, r3, #2130706432	@ 0x7f000000
 8002324:	687b      	ldr	r3, [r7, #4]
 8002326:	691b      	ldr	r3, [r3, #16]
 8002328:	061b      	lsls	r3, r3, #24
 800232a:	4973      	ldr	r1, [pc, #460]	@ (80024f8 <HAL_RCC_OscConfig+0x504>)
 800232c:	4313      	orrs	r3, r2
 800232e:	604b      	str	r3, [r1, #4]
      if((READ_BIT(RCC->CR, RCC_CR_HSIRDY) != 0U) && (RCC_OscInitStruct->HSIState == RCC_HSI_OFF))
 8002330:	e040      	b.n	80023b4 <HAL_RCC_OscConfig+0x3c0>
      }
    }
    else
    {
      /* Check the HSI State */
      if(RCC_OscInitStruct->HSIState != RCC_HSI_OFF)
 8002332:	687b      	ldr	r3, [r7, #4]
 8002334:	68db      	ldr	r3, [r3, #12]
 8002336:	2b00      	cmp	r3, #0
 8002338:	d023      	beq.n	8002382 <HAL_RCC_OscConfig+0x38e>
      {
        /* Enable the Internal High Speed oscillator (HSI). */
        __HAL_RCC_HSI_ENABLE();
 800233a:	4b6f      	ldr	r3, [pc, #444]	@ (80024f8 <HAL_RCC_OscConfig+0x504>)
 800233c:	681b      	ldr	r3, [r3, #0]
 800233e:	4a6e      	ldr	r2, [pc, #440]	@ (80024f8 <HAL_RCC_OscConfig+0x504>)
 8002340:	f443 7380 	orr.w	r3, r3, #256	@ 0x100
 8002344:	6013      	str	r3, [r2, #0]

        /* Get Start Tick*/
        tickstart = HAL_GetTick();
 8002346:	f7fe fa0f 	bl	8000768 <HAL_GetTick>
 800234a:	6138      	str	r0, [r7, #16]

        /* Wait till HSI is ready */
        while(READ_BIT(RCC->CR, RCC_CR_HSIRDY) == 0U)
 800234c:	e008      	b.n	8002360 <HAL_RCC_OscConfig+0x36c>
        {
          if((HAL_GetTick() - tickstart) > HSI_TIMEOUT_VALUE)
 800234e:	f7fe fa0b 	bl	8000768 <HAL_GetTick>
 8002352:	4602      	mov	r2, r0
 8002354:	693b      	ldr	r3, [r7, #16]
 8002356:	1ad3      	subs	r3, r2, r3
 8002358:	2b02      	cmp	r3, #2
 800235a:	d901      	bls.n	8002360 <HAL_RCC_OscConfig+0x36c>
          {
            return HAL_TIMEOUT;
 800235c:	2303      	movs	r3, #3
 800235e:	e25b      	b.n	8002818 <HAL_RCC_OscConfig+0x824>
        while(READ_BIT(RCC->CR, RCC_CR_HSIRDY) == 0U)
 8002360:	4b65      	ldr	r3, [pc, #404]	@ (80024f8 <HAL_RCC_OscConfig+0x504>)
 8002362:	681b      	ldr	r3, [r3, #0]
 8002364:	f403 6380 	and.w	r3, r3, #1024	@ 0x400
 8002368:	2b00      	cmp	r3, #0
 800236a:	d0f0      	beq.n	800234e <HAL_RCC_OscConfig+0x35a>
          }
        }

        /* Adjusts the Internal High Speed oscillator (HSI) calibration value.*/
        __HAL_RCC_HSI_CALIBRATIONVALUE_ADJUST(RCC_OscInitStruct->HSICalibrationValue);
 800236c:	4b62      	ldr	r3, [pc, #392]	@ (80024f8 <HAL_RCC_OscConfig+0x504>)
 800236e:	685b      	ldr	r3, [r3, #4]
 8002370:	f023 42fe 	bic.w	r2, r3, #2130706432	@ 0x7f000000
 8002374:	687b      	ldr	r3, [r7, #4]
 8002376:	691b      	ldr	r3, [r3, #16]
 8002378:	061b      	lsls	r3, r3, #24
 800237a:	495f      	ldr	r1, [pc, #380]	@ (80024f8 <HAL_RCC_OscConfig+0x504>)
 800237c:	4313      	orrs	r3, r2
 800237e:	604b      	str	r3, [r1, #4]
 8002380:	e018      	b.n	80023b4 <HAL_RCC_OscConfig+0x3c0>
      }
      else
      {
        /* Disable the Internal High Speed oscillator (HSI). */
        __HAL_RCC_HSI_DISABLE();
 8002382:	4b5d      	ldr	r3, [pc, #372]	@ (80024f8 <HAL_RCC_OscConfig+0x504>)
 8002384:	681b      	ldr	r3, [r3, #0]
 8002386:	4a5c      	ldr	r2, [pc, #368]	@ (80024f8 <HAL_RCC_OscConfig+0x504>)
 8002388:	f423 7380 	bic.w	r3, r3, #256	@ 0x100
 800238c:	6013      	str	r3, [r2, #0]

        /* Get Start Tick*/
        tickstart = HAL_GetTick();
 800238e:	f7fe f9eb 	bl	8000768 <HAL_GetTick>
 8002392:	6138      	str	r0, [r7, #16]

        /* Wait till HSI is disabled */
        while(READ_BIT(RCC->CR, RCC_CR_HSIRDY) != 0U)
 8002394:	e008      	b.n	80023a8 <HAL_RCC_OscConfig+0x3b4>
        {
          if((HAL_GetTick() - tickstart) > HSI_TIMEOUT_VALUE)
 8002396:	f7fe f9e7 	bl	8000768 <HAL_GetTick>
 800239a:	4602      	mov	r2, r0
 800239c:	693b      	ldr	r3, [r7, #16]
 800239e:	1ad3      	subs	r3, r2, r3
 80023a0:	2b02      	cmp	r3, #2
 80023a2:	d901      	bls.n	80023a8 <HAL_RCC_OscConfig+0x3b4>
          {
            return HAL_TIMEOUT;
 80023a4:	2303      	movs	r3, #3
 80023a6:	e237      	b.n	8002818 <HAL_RCC_OscConfig+0x824>
        while(READ_BIT(RCC->CR, RCC_CR_HSIRDY) != 0U)
 80023a8:	4b53      	ldr	r3, [pc, #332]	@ (80024f8 <HAL_RCC_OscConfig+0x504>)
 80023aa:	681b      	ldr	r3, [r3, #0]
 80023ac:	f403 6380 	and.w	r3, r3, #1024	@ 0x400
 80023b0:	2b00      	cmp	r3, #0
 80023b2:	d1f0      	bne.n	8002396 <HAL_RCC_OscConfig+0x3a2>
        }
      }
    }
  }
  /*------------------------------ LSI Configuration -------------------------*/
  if(((RCC_OscInitStruct->OscillatorType) & RCC_OSCILLATORTYPE_LSI) == RCC_OSCILLATORTYPE_LSI)
 80023b4:	687b      	ldr	r3, [r7, #4]
 80023b6:	681b      	ldr	r3, [r3, #0]
 80023b8:	f003 0308 	and.w	r3, r3, #8
 80023bc:	2b00      	cmp	r3, #0
 80023be:	d03c      	beq.n	800243a <HAL_RCC_OscConfig+0x446>
  {
    /* Check the parameters */
    assert_param(IS_RCC_LSI(RCC_OscInitStruct->LSIState));

    /* Check the LSI State */
    if(RCC_OscInitStruct->LSIState != RCC_LSI_OFF)
 80023c0:	687b      	ldr	r3, [r7, #4]
 80023c2:	695b      	ldr	r3, [r3, #20]
 80023c4:	2b00      	cmp	r3, #0
 80023c6:	d01c      	beq.n	8002402 <HAL_RCC_OscConfig+0x40e>
        MODIFY_REG(RCC->CSR, RCC_CSR_LSIPREDIV, RCC_OscInitStruct->LSIDiv);
      }
#endif /* RCC_CSR_LSIPREDIV */

      /* Enable the Internal Low Speed oscillator (LSI). */
      __HAL_RCC_LSI_ENABLE();
 80023c8:	4b4b      	ldr	r3, [pc, #300]	@ (80024f8 <HAL_RCC_OscConfig+0x504>)
 80023ca:	f8d3 3094 	ldr.w	r3, [r3, #148]	@ 0x94
 80023ce:	4a4a      	ldr	r2, [pc, #296]	@ (80024f8 <HAL_RCC_OscConfig+0x504>)
 80023d0:	f043 0301 	orr.w	r3, r3, #1
 80023d4:	f8c2 3094 	str.w	r3, [r2, #148]	@ 0x94

      /* Get Start Tick*/
      tickstart = HAL_GetTick();
 80023d8:	f7fe f9c6 	bl	8000768 <HAL_GetTick>
 80023dc:	6138      	str	r0, [r7, #16]

      /* Wait till LSI is ready */
      while(READ_BIT(RCC->CSR, RCC_CSR_LSIRDY) == 0U)
 80023de:	e008      	b.n	80023f2 <HAL_RCC_OscConfig+0x3fe>
      {
        if((HAL_GetTick() - tickstart) > LSI_TIMEOUT_VALUE)
 80023e0:	f7fe f9c2 	bl	8000768 <HAL_GetTick>
 80023e4:	4602      	mov	r2, r0
 80023e6:	693b      	ldr	r3, [r7, #16]
 80023e8:	1ad3      	subs	r3, r2, r3
 80023ea:	2b02      	cmp	r3, #2
 80023ec:	d901      	bls.n	80023f2 <HAL_RCC_OscConfig+0x3fe>
        {
          return HAL_TIMEOUT;
 80023ee:	2303      	movs	r3, #3
 80023f0:	e212      	b.n	8002818 <HAL_RCC_OscConfig+0x824>
      while(READ_BIT(RCC->CSR, RCC_CSR_LSIRDY) == 0U)
 80023f2:	4b41      	ldr	r3, [pc, #260]	@ (80024f8 <HAL_RCC_OscConfig+0x504>)
 80023f4:	f8d3 3094 	ldr.w	r3, [r3, #148]	@ 0x94
 80023f8:	f003 0302 	and.w	r3, r3, #2
 80023fc:	2b00      	cmp	r3, #0
 80023fe:	d0ef      	beq.n	80023e0 <HAL_RCC_OscConfig+0x3ec>
 8002400:	e01b      	b.n	800243a <HAL_RCC_OscConfig+0x446>
      }
    }
    else
    {
      /* Disable the Internal Low Speed oscillator (LSI). */
      __HAL_RCC_LSI_DISABLE();
 8002402:	4b3d      	ldr	r3, [pc, #244]	@ (80024f8 <HAL_RCC_OscConfig+0x504>)
 8002404:	f8d3 3094 	ldr.w	r3, [r3, #148]	@ 0x94
 8002408:	4a3b      	ldr	r2, [pc, #236]	@ (80024f8 <HAL_RCC_OscConfig+0x504>)
 800240a:	f023 0301 	bic.w	r3, r3, #1
 800240e:	f8c2 3094 	str.w	r3, [r2, #148]	@ 0x94

      /* Get Start Tick*/
      tickstart = HAL_GetTick();
 8002412:	f7fe f9a9 	bl	8000768 <HAL_GetTick>
 8002416:	6138      	str	r0, [r7, #16]

      /* Wait till LSI is disabled */
      while(READ_BIT(RCC->CSR, RCC_CSR_LSIRDY) != 0U)
 8002418:	e008      	b.n	800242c <HAL_RCC_OscConfig+0x438>
      {
        if((HAL_GetTick() - tickstart) > LSI_TIMEOUT_VALUE)
 800241a:	f7fe f9a5 	bl	8000768 <HAL_GetTick>
 800241e:	4602      	mov	r2, r0
 8002420:	693b      	ldr	r3, [r7, #16]
 8002422:	1ad3      	subs	r3, r2, r3
 8002424:	2b02      	cmp	r3, #2
 8002426:	d901      	bls.n	800242c <HAL_RCC_OscConfig+0x438>
        {
          return HAL_TIMEOUT;
 8002428:	2303      	movs	r3, #3
 800242a:	e1f5      	b.n	8002818 <HAL_RCC_OscConfig+0x824>
      while(READ_BIT(RCC->CSR, RCC_CSR_LSIRDY) != 0U)
 800242c:	4b32      	ldr	r3, [pc, #200]	@ (80024f8 <HAL_RCC_OscConfig+0x504>)
 800242e:	f8d3 3094 	ldr.w	r3, [r3, #148]	@ 0x94
 8002432:	f003 0302 	and.w	r3, r3, #2
 8002436:	2b00      	cmp	r3, #0
 8002438:	d1ef      	bne.n	800241a <HAL_RCC_OscConfig+0x426>
        }
      }
    }
  }
  /*------------------------------ LSE Configuration -------------------------*/
  if(((RCC_OscInitStruct->OscillatorType) & RCC_OSCILLATORTYPE_LSE) == RCC_OSCILLATORTYPE_LSE)
 800243a:	687b      	ldr	r3, [r7, #4]
 800243c:	681b      	ldr	r3, [r3, #0]
 800243e:	f003 0304 	and.w	r3, r3, #4
 8002442:	2b00      	cmp	r3, #0
 8002444:	f000 80a6 	beq.w	8002594 <HAL_RCC_OscConfig+0x5a0>
  {
    FlagStatus       pwrclkchanged = RESET;
 8002448:	2300      	movs	r3, #0
 800244a:	77fb      	strb	r3, [r7, #31]
    /* Check the parameters */
    assert_param(IS_RCC_LSE(RCC_OscInitStruct->LSEState));

    /* Update LSE configuration in Backup Domain control register    */
    /* Requires to enable write access to Backup Domain of necessary */
    if(HAL_IS_BIT_CLR(RCC->APB1ENR1, RCC_APB1ENR1_PWREN))
 800244c:	4b2a      	ldr	r3, [pc, #168]	@ (80024f8 <HAL_RCC_OscConfig+0x504>)
 800244e:	6d9b      	ldr	r3, [r3, #88]	@ 0x58
 8002450:	f003 5380 	and.w	r3, r3, #268435456	@ 0x10000000
 8002454:	2b00      	cmp	r3, #0
 8002456:	d10d      	bne.n	8002474 <HAL_RCC_OscConfig+0x480>
    {
      __HAL_RCC_PWR_CLK_ENABLE();
 8002458:	4b27      	ldr	r3, [pc, #156]	@ (80024f8 <HAL_RCC_OscConfig+0x504>)
 800245a:	6d9b      	ldr	r3, [r3, #88]	@ 0x58
 800245c:	4a26      	ldr	r2, [pc, #152]	@ (80024f8 <HAL_RCC_OscConfig+0x504>)
 800245e:	f043 5380 	orr.w	r3, r3, #268435456	@ 0x10000000
 8002462:	6593      	str	r3, [r2, #88]	@ 0x58
 8002464:	4b24      	ldr	r3, [pc, #144]	@ (80024f8 <HAL_RCC_OscConfig+0x504>)
 8002466:	6d9b      	ldr	r3, [r3, #88]	@ 0x58
 8002468:	f003 5380 	and.w	r3, r3, #268435456	@ 0x10000000
 800246c:	60bb      	str	r3, [r7, #8]
 800246e:	68bb      	ldr	r3, [r7, #8]
      pwrclkchanged = SET;
 8002470:	2301      	movs	r3, #1
 8002472:	77fb      	strb	r3, [r7, #31]
    }

    if(HAL_IS_BIT_CLR(PWR->CR1, PWR_CR1_DBP))
 8002474:	4b21      	ldr	r3, [pc, #132]	@ (80024fc <HAL_RCC_OscConfig+0x508>)
 8002476:	681b      	ldr	r3, [r3, #0]
 8002478:	f403 7380 	and.w	r3, r3, #256	@ 0x100
 800247c:	2b00      	cmp	r3, #0
 800247e:	d118      	bne.n	80024b2 <HAL_RCC_OscConfig+0x4be>
    {
      /* Enable write access to Backup domain */
      SET_BIT(PWR->CR1, PWR_CR1_DBP);
 8002480:	4b1e      	ldr	r3, [pc, #120]	@ (80024fc <HAL_RCC_OscConfig+0x508>)
 8002482:	681b      	ldr	r3, [r3, #0]
 8002484:	4a1d      	ldr	r2, [pc, #116]	@ (80024fc <HAL_RCC_OscConfig+0x508>)
 8002486:	f443 7380 	orr.w	r3, r3, #256	@ 0x100
 800248a:	6013      	str	r3, [r2, #0]

      /* Wait for Backup domain Write protection disable */
      tickstart = HAL_GetTick();
 800248c:	f7fe f96c 	bl	8000768 <HAL_GetTick>
 8002490:	6138      	str	r0, [r7, #16]

      while(HAL_IS_BIT_CLR(PWR->CR1, PWR_CR1_DBP))
 8002492:	e008      	b.n	80024a6 <HAL_RCC_OscConfig+0x4b2>
      {
        if((HAL_GetTick() - tickstart) > RCC_DBP_TIMEOUT_VALUE)
 8002494:	f7fe f968 	bl	8000768 <HAL_GetTick>
 8002498:	4602      	mov	r2, r0
 800249a:	693b      	ldr	r3, [r7, #16]
 800249c:	1ad3      	subs	r3, r2, r3
 800249e:	2b02      	cmp	r3, #2
 80024a0:	d901      	bls.n	80024a6 <HAL_RCC_OscConfig+0x4b2>
        {
          return HAL_TIMEOUT;
 80024a2:	2303      	movs	r3, #3
 80024a4:	e1b8      	b.n	8002818 <HAL_RCC_OscConfig+0x824>
      while(HAL_IS_BIT_CLR(PWR->CR1, PWR_CR1_DBP))
 80024a6:	4b15      	ldr	r3, [pc, #84]	@ (80024fc <HAL_RCC_OscConfig+0x508>)
 80024a8:	681b      	ldr	r3, [r3, #0]
 80024aa:	f403 7380 	and.w	r3, r3, #256	@ 0x100
 80024ae:	2b00      	cmp	r3, #0
 80024b0:	d0f0      	beq.n	8002494 <HAL_RCC_OscConfig+0x4a0>
    {
      CLEAR_BIT(RCC->BDCR, RCC_BDCR_LSEON);
      CLEAR_BIT(RCC->BDCR, RCC_BDCR_LSEBYP);
    }
#else
    __HAL_RCC_LSE_CONFIG(RCC_OscInitStruct->LSEState);
 80024b2:	687b      	ldr	r3, [r7, #4]
 80024b4:	689b      	ldr	r3, [r3, #8]
 80024b6:	2b01      	cmp	r3, #1
 80024b8:	d108      	bne.n	80024cc <HAL_RCC_OscConfig+0x4d8>
 80024ba:	4b0f      	ldr	r3, [pc, #60]	@ (80024f8 <HAL_RCC_OscConfig+0x504>)
 80024bc:	f8d3 3090 	ldr.w	r3, [r3, #144]	@ 0x90
 80024c0:	4a0d      	ldr	r2, [pc, #52]	@ (80024f8 <HAL_RCC_OscConfig+0x504>)
 80024c2:	f043 0301 	orr.w	r3, r3, #1
 80024c6:	f8c2 3090 	str.w	r3, [r2, #144]	@ 0x90
 80024ca:	e029      	b.n	8002520 <HAL_RCC_OscConfig+0x52c>
 80024cc:	687b      	ldr	r3, [r7, #4]
 80024ce:	689b      	ldr	r3, [r3, #8]
 80024d0:	2b05      	cmp	r3, #5
 80024d2:	d115      	bne.n	8002500 <HAL_RCC_OscConfig+0x50c>
 80024d4:	4b08      	ldr	r3, [pc, #32]	@ (80024f8 <HAL_RCC_OscConfig+0x504>)
 80024d6:	f8d3 3090 	ldr.w	r3, [r3, #144]	@ 0x90
 80024da:	4a07      	ldr	r2, [pc, #28]	@ (80024f8 <HAL_RCC_OscConfig+0x504>)
 80024dc:	f043 0304 	orr.w	r3, r3, #4
 80024e0:	f8c2 3090 	str.w	r3, [r2, #144]	@ 0x90
 80024e4:	4b04      	ldr	r3, [pc, #16]	@ (80024f8 <HAL_RCC_OscConfig+0x504>)
 80024e6:	f8d3 3090 	ldr.w	r3, [r3, #144]	@ 0x90
 80024ea:	4a03      	ldr	r2, [pc, #12]	@ (80024f8 <HAL_RCC_OscConfig+0x504>)
 80024ec:	f043 0301 	orr.w	r3, r3, #1
 80024f0:	f8c2 3090 	str.w	r3, [r2, #144]	@ 0x90
 80024f4:	e014      	b.n	8002520 <HAL_RCC_OscConfig+0x52c>
 80024f6:	bf00      	nop
 80024f8:	40021000 	.word	0x40021000
 80024fc:	40007000 	.word	0x40007000
 8002500:	4b9d      	ldr	r3, [pc, #628]	@ (8002778 <HAL_RCC_OscConfig+0x784>)
 8002502:	f8d3 3090 	ldr.w	r3, [r3, #144]	@ 0x90
 8002506:	4a9c      	ldr	r2, [pc, #624]	@ (8002778 <HAL_RCC_OscConfig+0x784>)
 8002508:	f023 0301 	bic.w	r3, r3, #1
 800250c:	f8c2 3090 	str.w	r3, [r2, #144]	@ 0x90
 8002510:	4b99      	ldr	r3, [pc, #612]	@ (8002778 <HAL_RCC_OscConfig+0x784>)
 8002512:	f8d3 3090 	ldr.w	r3, [r3, #144]	@ 0x90
 8002516:	4a98      	ldr	r2, [pc, #608]	@ (8002778 <HAL_RCC_OscConfig+0x784>)
 8002518:	f023 0304 	bic.w	r3, r3, #4
 800251c:	f8c2 3090 	str.w	r3, [r2, #144]	@ 0x90
#endif /* RCC_BDCR_LSESYSDIS */

    /* Check the LSE State */
    if(RCC_OscInitStruct->LSEState != RCC_LSE_OFF)
 8002520:	687b      	ldr	r3, [r7, #4]
 8002522:	689b      	ldr	r3, [r3, #8]
 8002524:	2b00      	cmp	r3, #0
 8002526:	d016      	beq.n	8002556 <HAL_RCC_OscConfig+0x562>
    {
      /* Get Start Tick*/
      tickstart = HAL_GetTick();
 8002528:	f7fe f91e 	bl	8000768 <HAL_GetTick>
 800252c:	6138      	str	r0, [r7, #16]

      /* Wait till LSE is ready */
      while(READ_BIT(RCC->BDCR, RCC_BDCR_LSERDY) == 0U)
 800252e:	e00a      	b.n	8002546 <HAL_RCC_OscConfig+0x552>
      {
        if((HAL_GetTick() - tickstart) > RCC_LSE_TIMEOUT_VALUE)
 8002530:	f7fe f91a 	bl	8000768 <HAL_GetTick>
 8002534:	4602      	mov	r2, r0
 8002536:	693b      	ldr	r3, [r7, #16]
 8002538:	1ad3      	subs	r3, r2, r3
 800253a:	f241 3288 	movw	r2, #5000	@ 0x1388
 800253e:	4293      	cmp	r3, r2
 8002540:	d901      	bls.n	8002546 <HAL_RCC_OscConfig+0x552>
        {
          return HAL_TIMEOUT;
 8002542:	2303      	movs	r3, #3
 8002544:	e168      	b.n	8002818 <HAL_RCC_OscConfig+0x824>
      while(READ_BIT(RCC->BDCR, RCC_BDCR_LSERDY) == 0U)
 8002546:	4b8c      	ldr	r3, [pc, #560]	@ (8002778 <HAL_RCC_OscConfig+0x784>)
 8002548:	f8d3 3090 	ldr.w	r3, [r3, #144]	@ 0x90
 800254c:	f003 0302 	and.w	r3, r3, #2
 8002550:	2b00      	cmp	r3, #0
 8002552:	d0ed      	beq.n	8002530 <HAL_RCC_OscConfig+0x53c>
 8002554:	e015      	b.n	8002582 <HAL_RCC_OscConfig+0x58e>
      }
    }
    else
    {
      /* Get Start Tick*/
      tickstart = HAL_GetTick();
 8002556:	f7fe f907 	bl	8000768 <HAL_GetTick>
 800255a:	6138      	str	r0, [r7, #16]

      /* Wait till LSE is disabled */
      while(READ_BIT(RCC->BDCR, RCC_BDCR_LSERDY) != 0U)
 800255c:	e00a      	b.n	8002574 <HAL_RCC_OscConfig+0x580>
      {
        if((HAL_GetTick() - tickstart) > RCC_LSE_TIMEOUT_VALUE)
 800255e:	f7fe f903 	bl	8000768 <HAL_GetTick>
 8002562:	4602      	mov	r2, r0
 8002564:	693b      	ldr	r3, [r7, #16]
 8002566:	1ad3      	subs	r3, r2, r3
 8002568:	f241 3288 	movw	r2, #5000	@ 0x1388
 800256c:	4293      	cmp	r3, r2
 800256e:	d901      	bls.n	8002574 <HAL_RCC_OscConfig+0x580>
        {
          return HAL_TIMEOUT;
 8002570:	2303      	movs	r3, #3
 8002572:	e151      	b.n	8002818 <HAL_RCC_OscConfig+0x824>
      while(READ_BIT(RCC->BDCR, RCC_BDCR_LSERDY) != 0U)
 8002574:	4b80      	ldr	r3, [pc, #512]	@ (8002778 <HAL_RCC_OscConfig+0x784>)
 8002576:	f8d3 3090 	ldr.w	r3, [r3, #144]	@ 0x90
 800257a:	f003 0302 	and.w	r3, r3, #2
 800257e:	2b00      	cmp	r3, #0
 8002580:	d1ed      	bne.n	800255e <HAL_RCC_OscConfig+0x56a>
      CLEAR_BIT(RCC->BDCR, RCC_BDCR_LSESYSDIS);
#endif /* RCC_BDCR_LSESYSDIS */
    }

    /* Restore clock configuration if changed */
    if(pwrclkchanged == SET)
 8002582:	7ffb      	ldrb	r3, [r7, #31]
 8002584:	2b01      	cmp	r3, #1
 8002586:	d105      	bne.n	8002594 <HAL_RCC_OscConfig+0x5a0>
    {
      __HAL_RCC_PWR_CLK_DISABLE();
 8002588:	4b7b      	ldr	r3, [pc, #492]	@ (8002778 <HAL_RCC_OscConfig+0x784>)
 800258a:	6d9b      	ldr	r3, [r3, #88]	@ 0x58
 800258c:	4a7a      	ldr	r2, [pc, #488]	@ (8002778 <HAL_RCC_OscConfig+0x784>)
 800258e:	f023 5380 	bic.w	r3, r3, #268435456	@ 0x10000000
 8002592:	6593      	str	r3, [r2, #88]	@ 0x58
    }
  }
#if defined(RCC_HSI48_SUPPORT)
  /*------------------------------ HSI48 Configuration -----------------------*/
  if(((RCC_OscInitStruct->OscillatorType) & RCC_OSCILLATORTYPE_HSI48) == RCC_OSCILLATORTYPE_HSI48)
 8002594:	687b      	ldr	r3, [r7, #4]
 8002596:	681b      	ldr	r3, [r3, #0]
 8002598:	f003 0320 	and.w	r3, r3, #32
 800259c:	2b00      	cmp	r3, #0
 800259e:	d03c      	beq.n	800261a <HAL_RCC_OscConfig+0x626>
  {
    /* Check the parameters */
    assert_param(IS_RCC_HSI48(RCC_OscInitStruct->HSI48State));

    /* Check the LSI State */
    if(RCC_OscInitStruct->HSI48State != RCC_HSI48_OFF)
 80025a0:	687b      	ldr	r3, [r7, #4]
 80025a2:	6a5b      	ldr	r3, [r3, #36]	@ 0x24
 80025a4:	2b00      	cmp	r3, #0
 80025a6:	d01c      	beq.n	80025e2 <HAL_RCC_OscConfig+0x5ee>
    {
      /* Enable the Internal Low Speed oscillator (HSI48). */
      __HAL_RCC_HSI48_ENABLE();
 80025a8:	4b73      	ldr	r3, [pc, #460]	@ (8002778 <HAL_RCC_OscConfig+0x784>)
 80025aa:	f8d3 3098 	ldr.w	r3, [r3, #152]	@ 0x98
 80025ae:	4a72      	ldr	r2, [pc, #456]	@ (8002778 <HAL_RCC_OscConfig+0x784>)
 80025b0:	f043 0301 	orr.w	r3, r3, #1
 80025b4:	f8c2 3098 	str.w	r3, [r2, #152]	@ 0x98

      /* Get Start Tick*/
      tickstart = HAL_GetTick();
 80025b8:	f7fe f8d6 	bl	8000768 <HAL_GetTick>
 80025bc:	6138      	str	r0, [r7, #16]

      /* Wait till HSI48 is ready */
      while(READ_BIT(RCC->CRRCR, RCC_CRRCR_HSI48RDY) == 0U)
 80025be:	e008      	b.n	80025d2 <HAL_RCC_OscConfig+0x5de>
      {
        if((HAL_GetTick() - tickstart) > HSI48_TIMEOUT_VALUE)
 80025c0:	f7fe f8d2 	bl	8000768 <HAL_GetTick>
 80025c4:	4602      	mov	r2, r0
 80025c6:	693b      	ldr	r3, [r7, #16]
 80025c8:	1ad3      	subs	r3, r2, r3
 80025ca:	2b02      	cmp	r3, #2
 80025cc:	d901      	bls.n	80025d2 <HAL_RCC_OscConfig+0x5de>
        {
          return HAL_TIMEOUT;
 80025ce:	2303      	movs	r3, #3
 80025d0:	e122      	b.n	8002818 <HAL_RCC_OscConfig+0x824>
      while(READ_BIT(RCC->CRRCR, RCC_CRRCR_HSI48RDY) == 0U)
 80025d2:	4b69      	ldr	r3, [pc, #420]	@ (8002778 <HAL_RCC_OscConfig+0x784>)
 80025d4:	f8d3 3098 	ldr.w	r3, [r3, #152]	@ 0x98
 80025d8:	f003 0302 	and.w	r3, r3, #2
 80025dc:	2b00      	cmp	r3, #0
 80025de:	d0ef      	beq.n	80025c0 <HAL_RCC_OscConfig+0x5cc>
 80025e0:	e01b      	b.n	800261a <HAL_RCC_OscConfig+0x626>
      }
    }
    else
    {
      /* Disable the Internal Low Speed oscillator (HSI48). */
      __HAL_RCC_HSI48_DISABLE();
 80025e2:	4b65      	ldr	r3, [pc, #404]	@ (8002778 <HAL_RCC_OscConfig+0x784>)
 80025e4:	f8d3 3098 	ldr.w	r3, [r3, #152]	@ 0x98
 80025e8:	4a63      	ldr	r2, [pc, #396]	@ (8002778 <HAL_RCC_OscConfig+0x784>)
 80025ea:	f023 0301 	bic.w	r3, r3, #1
 80025ee:	f8c2 3098 	str.w	r3, [r2, #152]	@ 0x98

      /* Get Start Tick*/
      tickstart = HAL_GetTick();
 80025f2:	f7fe f8b9 	bl	8000768 <HAL_GetTick>
 80025f6:	6138      	str	r0, [r7, #16]

      /* Wait till HSI48 is disabled */
      while(READ_BIT(RCC->CRRCR, RCC_CRRCR_HSI48RDY) != 0U)
 80025f8:	e008      	b.n	800260c <HAL_RCC_OscConfig+0x618>
      {
        if((HAL_GetTick() - tickstart) > HSI48_TIMEOUT_VALUE)
 80025fa:	f7fe f8b5 	bl	8000768 <HAL_GetTick>
 80025fe:	4602      	mov	r2, r0
 8002600:	693b      	ldr	r3, [r7, #16]
 8002602:	1ad3      	subs	r3, r2, r3
 8002604:	2b02      	cmp	r3, #2
 8002606:	d901      	bls.n	800260c <HAL_RCC_OscConfig+0x618>
        {
          return HAL_TIMEOUT;
 8002608:	2303      	movs	r3, #3
 800260a:	e105      	b.n	8002818 <HAL_RCC_OscConfig+0x824>
      while(READ_BIT(RCC->CRRCR, RCC_CRRCR_HSI48RDY) != 0U)
 800260c:	4b5a      	ldr	r3, [pc, #360]	@ (8002778 <HAL_RCC_OscConfig+0x784>)
 800260e:	f8d3 3098 	ldr.w	r3, [r3, #152]	@ 0x98
 8002612:	f003 0302 	and.w	r3, r3, #2
 8002616:	2b00      	cmp	r3, #0
 8002618:	d1ef      	bne.n	80025fa <HAL_RCC_OscConfig+0x606>
#endif /* RCC_HSI48_SUPPORT */
  /*-------------------------------- PLL Configuration -----------------------*/
  /* Check the parameters */
  assert_param(IS_RCC_PLL(RCC_OscInitStruct->PLL.PLLState));

  if(RCC_OscInitStruct->PLL.PLLState != RCC_PLL_NONE)
 800261a:	687b      	ldr	r3, [r7, #4]
 800261c:	6a9b      	ldr	r3, [r3, #40]	@ 0x28
 800261e:	2b00      	cmp	r3, #0
 8002620:	f000 80f9 	beq.w	8002816 <HAL_RCC_OscConfig+0x822>
  {
    /* PLL On ? */
    if(RCC_OscInitStruct->PLL.PLLState == RCC_PLL_ON)
 8002624:	687b      	ldr	r3, [r7, #4]
 8002626:	6a9b      	ldr	r3, [r3, #40]	@ 0x28
 8002628:	2b02      	cmp	r3, #2
 800262a:	f040 80cf 	bne.w	80027cc <HAL_RCC_OscConfig+0x7d8>
#endif /* RCC_PLLP_SUPPORT */
      assert_param(IS_RCC_PLLQ_VALUE(RCC_OscInitStruct->PLL.PLLQ));
      assert_param(IS_RCC_PLLR_VALUE(RCC_OscInitStruct->PLL.PLLR));

      /* Do nothing if PLL configuration is the unchanged */
      pll_config = RCC->PLLCFGR;
 800262e:	4b52      	ldr	r3, [pc, #328]	@ (8002778 <HAL_RCC_OscConfig+0x784>)
 8002630:	68db      	ldr	r3, [r3, #12]
 8002632:	617b      	str	r3, [r7, #20]
      if((READ_BIT(pll_config, RCC_PLLCFGR_PLLSRC)  != RCC_OscInitStruct->PLL.PLLSource) ||
 8002634:	697b      	ldr	r3, [r7, #20]
 8002636:	f003 0203 	and.w	r2, r3, #3
 800263a:	687b      	ldr	r3, [r7, #4]
 800263c:	6adb      	ldr	r3, [r3, #44]	@ 0x2c
 800263e:	429a      	cmp	r2, r3
 8002640:	d12c      	bne.n	800269c <HAL_RCC_OscConfig+0x6a8>
         (READ_BIT(pll_config, RCC_PLLCFGR_PLLM)    != ((RCC_OscInitStruct->PLL.PLLM - 1U) << RCC_PLLCFGR_PLLM_Pos)) ||
 8002642:	697b      	ldr	r3, [r7, #20]
 8002644:	f003 02f0 	and.w	r2, r3, #240	@ 0xf0
 8002648:	687b      	ldr	r3, [r7, #4]
 800264a:	6b1b      	ldr	r3, [r3, #48]	@ 0x30
 800264c:	3b01      	subs	r3, #1
 800264e:	011b      	lsls	r3, r3, #4
      if((READ_BIT(pll_config, RCC_PLLCFGR_PLLSRC)  != RCC_OscInitStruct->PLL.PLLSource) ||
 8002650:	429a      	cmp	r2, r3
 8002652:	d123      	bne.n	800269c <HAL_RCC_OscConfig+0x6a8>
         (READ_BIT(pll_config, RCC_PLLCFGR_PLLN)    != (RCC_OscInitStruct->PLL.PLLN << RCC_PLLCFGR_PLLN_Pos)) ||
 8002654:	697b      	ldr	r3, [r7, #20]
 8002656:	f403 42fe 	and.w	r2, r3, #32512	@ 0x7f00
 800265a:	687b      	ldr	r3, [r7, #4]
 800265c:	6b5b      	ldr	r3, [r3, #52]	@ 0x34
 800265e:	021b      	lsls	r3, r3, #8
         (READ_BIT(pll_config, RCC_PLLCFGR_PLLM)    != ((RCC_OscInitStruct->PLL.PLLM - 1U) << RCC_PLLCFGR_PLLM_Pos)) ||
 8002660:	429a      	cmp	r2, r3
 8002662:	d11b      	bne.n	800269c <HAL_RCC_OscConfig+0x6a8>
#if defined(RCC_PLLP_SUPPORT)
#if defined(RCC_PLLP_DIV_2_31_SUPPORT)
         (READ_BIT(pll_config, RCC_PLLCFGR_PLLPDIV) != (RCC_OscInitStruct->PLL.PLLP << RCC_PLLCFGR_PLLPDIV_Pos)) ||
 8002664:	697b      	ldr	r3, [r7, #20]
 8002666:	f003 4278 	and.w	r2, r3, #4160749568	@ 0xf8000000
 800266a:	687b      	ldr	r3, [r7, #4]
 800266c:	6b9b      	ldr	r3, [r3, #56]	@ 0x38
 800266e:	06db      	lsls	r3, r3, #27
         (READ_BIT(pll_config, RCC_PLLCFGR_PLLN)    != (RCC_OscInitStruct->PLL.PLLN << RCC_PLLCFGR_PLLN_Pos)) ||
 8002670:	429a      	cmp	r2, r3
 8002672:	d113      	bne.n	800269c <HAL_RCC_OscConfig+0x6a8>
#else
         (READ_BIT(pll_config, RCC_PLLCFGR_PLLP)    != ((RCC_OscInitStruct->PLL.PLLP == RCC_PLLP_DIV7) ? 0U : 1U)) ||
#endif
#endif
         (READ_BIT(pll_config, RCC_PLLCFGR_PLLQ)    != ((((RCC_OscInitStruct->PLL.PLLQ) >> 1U) - 1U) << RCC_PLLCFGR_PLLQ_Pos)) ||
 8002674:	697b      	ldr	r3, [r7, #20]
 8002676:	f403 02c0 	and.w	r2, r3, #6291456	@ 0x600000
 800267a:	687b      	ldr	r3, [r7, #4]
 800267c:	6bdb      	ldr	r3, [r3, #60]	@ 0x3c
 800267e:	085b      	lsrs	r3, r3, #1
 8002680:	3b01      	subs	r3, #1
 8002682:	055b      	lsls	r3, r3, #21
         (READ_BIT(pll_config, RCC_PLLCFGR_PLLPDIV) != (RCC_OscInitStruct->PLL.PLLP << RCC_PLLCFGR_PLLPDIV_Pos)) ||
 8002684:	429a      	cmp	r2, r3
 8002686:	d109      	bne.n	800269c <HAL_RCC_OscConfig+0x6a8>
         (READ_BIT(pll_config, RCC_PLLCFGR_PLLR)    != ((((RCC_OscInitStruct->PLL.PLLR) >> 1U) - 1U) << RCC_PLLCFGR_PLLR_Pos)))
 8002688:	697b      	ldr	r3, [r7, #20]
 800268a:	f003 62c0 	and.w	r2, r3, #100663296	@ 0x6000000
 800268e:	687b      	ldr	r3, [r7, #4]
 8002690:	6c1b      	ldr	r3, [r3, #64]	@ 0x40
 8002692:	085b      	lsrs	r3, r3, #1
 8002694:	3b01      	subs	r3, #1
 8002696:	065b      	lsls	r3, r3, #25
         (READ_BIT(pll_config, RCC_PLLCFGR_PLLQ)    != ((((RCC_OscInitStruct->PLL.PLLQ) >> 1U) - 1U) << RCC_PLLCFGR_PLLQ_Pos)) ||
 8002698:	429a      	cmp	r2, r3
 800269a:	d071      	beq.n	8002780 <HAL_RCC_OscConfig+0x78c>
      {
        /* Check if the PLL is used as system clock or not */
        if(sysclk_source != RCC_CFGR_SWS_PLL)
 800269c:	69bb      	ldr	r3, [r7, #24]
 800269e:	2b0c      	cmp	r3, #12
 80026a0:	d068      	beq.n	8002774 <HAL_RCC_OscConfig+0x780>
        {
#if defined(RCC_PLLSAI1_SUPPORT) || defined(RCC_PLLSAI2_SUPPORT)
          /* Check if main PLL can be updated */
          /* Not possible if the source is shared by other enabled PLLSAIx */
          if((READ_BIT(RCC->CR, RCC_CR_PLLSAI1ON) != 0U)
 80026a2:	4b35      	ldr	r3, [pc, #212]	@ (8002778 <HAL_RCC_OscConfig+0x784>)
 80026a4:	681b      	ldr	r3, [r3, #0]
 80026a6:	f003 6380 	and.w	r3, r3, #67108864	@ 0x4000000
 80026aa:	2b00      	cmp	r3, #0
 80026ac:	d105      	bne.n	80026ba <HAL_RCC_OscConfig+0x6c6>
#if defined(RCC_PLLSAI2_SUPPORT)
             || (READ_BIT(RCC->CR, RCC_CR_PLLSAI2ON) != 0U)
 80026ae:	4b32      	ldr	r3, [pc, #200]	@ (8002778 <HAL_RCC_OscConfig+0x784>)
 80026b0:	681b      	ldr	r3, [r3, #0]
 80026b2:	f003 5380 	and.w	r3, r3, #268435456	@ 0x10000000
 80026b6:	2b00      	cmp	r3, #0
 80026b8:	d001      	beq.n	80026be <HAL_RCC_OscConfig+0x6ca>
#endif
            )
          {
            return HAL_ERROR;
 80026ba:	2301      	movs	r3, #1
 80026bc:	e0ac      	b.n	8002818 <HAL_RCC_OscConfig+0x824>
          }
          else
#endif /* RCC_PLLSAI1_SUPPORT || RCC_PLLSAI2_SUPPORT */
          {
            /* Disable the main PLL. */
            __HAL_RCC_PLL_DISABLE();
 80026be:	4b2e      	ldr	r3, [pc, #184]	@ (8002778 <HAL_RCC_OscConfig+0x784>)
 80026c0:	681b      	ldr	r3, [r3, #0]
 80026c2:	4a2d      	ldr	r2, [pc, #180]	@ (8002778 <HAL_RCC_OscConfig+0x784>)
 80026c4:	f023 7380 	bic.w	r3, r3, #16777216	@ 0x1000000
 80026c8:	6013      	str	r3, [r2, #0]

            /* Get Start Tick*/
            tickstart = HAL_GetTick();
 80026ca:	f7fe f84d 	bl	8000768 <HAL_GetTick>
 80026ce:	6138      	str	r0, [r7, #16]

            /* Wait till PLL is ready */
            while(READ_BIT(RCC->CR, RCC_CR_PLLRDY) != 0U)
 80026d0:	e008      	b.n	80026e4 <HAL_RCC_OscConfig+0x6f0>
            {
              if((HAL_GetTick() - tickstart) > PLL_TIMEOUT_VALUE)
 80026d2:	f7fe f849 	bl	8000768 <HAL_GetTick>
 80026d6:	4602      	mov	r2, r0
 80026d8:	693b      	ldr	r3, [r7, #16]
 80026da:	1ad3      	subs	r3, r2, r3
 80026dc:	2b02      	cmp	r3, #2
 80026de:	d901      	bls.n	80026e4 <HAL_RCC_OscConfig+0x6f0>
              {
                return HAL_TIMEOUT;
 80026e0:	2303      	movs	r3, #3
 80026e2:	e099      	b.n	8002818 <HAL_RCC_OscConfig+0x824>
            while(READ_BIT(RCC->CR, RCC_CR_PLLRDY) != 0U)
 80026e4:	4b24      	ldr	r3, [pc, #144]	@ (8002778 <HAL_RCC_OscConfig+0x784>)
 80026e6:	681b      	ldr	r3, [r3, #0]
 80026e8:	f003 7300 	and.w	r3, r3, #33554432	@ 0x2000000
 80026ec:	2b00      	cmp	r3, #0
 80026ee:	d1f0      	bne.n	80026d2 <HAL_RCC_OscConfig+0x6de>
              }
            }

            /* Configure the main PLL clock source, multiplication and division factors. */
#if defined(RCC_PLLP_SUPPORT)
            __HAL_RCC_PLL_CONFIG(RCC_OscInitStruct->PLL.PLLSource,
 80026f0:	4b21      	ldr	r3, [pc, #132]	@ (8002778 <HAL_RCC_OscConfig+0x784>)
 80026f2:	68da      	ldr	r2, [r3, #12]
 80026f4:	4b21      	ldr	r3, [pc, #132]	@ (800277c <HAL_RCC_OscConfig+0x788>)
 80026f6:	4013      	ands	r3, r2
 80026f8:	687a      	ldr	r2, [r7, #4]
 80026fa:	6ad1      	ldr	r1, [r2, #44]	@ 0x2c
 80026fc:	687a      	ldr	r2, [r7, #4]
 80026fe:	6b12      	ldr	r2, [r2, #48]	@ 0x30
 8002700:	3a01      	subs	r2, #1
 8002702:	0112      	lsls	r2, r2, #4
 8002704:	4311      	orrs	r1, r2
 8002706:	687a      	ldr	r2, [r7, #4]
 8002708:	6b52      	ldr	r2, [r2, #52]	@ 0x34
 800270a:	0212      	lsls	r2, r2, #8
 800270c:	4311      	orrs	r1, r2
 800270e:	687a      	ldr	r2, [r7, #4]
 8002710:	6bd2      	ldr	r2, [r2, #60]	@ 0x3c
 8002712:	0852      	lsrs	r2, r2, #1
 8002714:	3a01      	subs	r2, #1
 8002716:	0552      	lsls	r2, r2, #21
 8002718:	4311      	orrs	r1, r2
 800271a:	687a      	ldr	r2, [r7, #4]
 800271c:	6c12      	ldr	r2, [r2, #64]	@ 0x40
 800271e:	0852      	lsrs	r2, r2, #1
 8002720:	3a01      	subs	r2, #1
 8002722:	0652      	lsls	r2, r2, #25
 8002724:	4311      	orrs	r1, r2
 8002726:	687a      	ldr	r2, [r7, #4]
 8002728:	6b92      	ldr	r2, [r2, #56]	@ 0x38
 800272a:	06d2      	lsls	r2, r2, #27
 800272c:	430a      	orrs	r2, r1
 800272e:	4912      	ldr	r1, [pc, #72]	@ (8002778 <HAL_RCC_OscConfig+0x784>)
 8002730:	4313      	orrs	r3, r2
 8002732:	60cb      	str	r3, [r1, #12]
                                 RCC_OscInitStruct->PLL.PLLQ,
                                 RCC_OscInitStruct->PLL.PLLR);
#endif

            /* Enable the main PLL. */
            __HAL_RCC_PLL_ENABLE();
 8002734:	4b10      	ldr	r3, [pc, #64]	@ (8002778 <HAL_RCC_OscConfig+0x784>)
 8002736:	681b      	ldr	r3, [r3, #0]
 8002738:	4a0f      	ldr	r2, [pc, #60]	@ (8002778 <HAL_RCC_OscConfig+0x784>)
 800273a:	f043 7380 	orr.w	r3, r3, #16777216	@ 0x1000000
 800273e:	6013      	str	r3, [r2, #0]

            /* Enable PLL System Clock output. */
            __HAL_RCC_PLLCLKOUT_ENABLE(RCC_PLL_SYSCLK);
 8002740:	4b0d      	ldr	r3, [pc, #52]	@ (8002778 <HAL_RCC_OscConfig+0x784>)
 8002742:	68db      	ldr	r3, [r3, #12]
 8002744:	4a0c      	ldr	r2, [pc, #48]	@ (8002778 <HAL_RCC_OscConfig+0x784>)
 8002746:	f043 7380 	orr.w	r3, r3, #16777216	@ 0x1000000
 800274a:	60d3      	str	r3, [r2, #12]

            /* Get Start Tick*/
            tickstart = HAL_GetTick();
 800274c:	f7fe f80c 	bl	8000768 <HAL_GetTick>
 8002750:	6138      	str	r0, [r7, #16]

            /* Wait till PLL is ready */
            while(READ_BIT(RCC->CR, RCC_CR_PLLRDY) == 0U)
 8002752:	e008      	b.n	8002766 <HAL_RCC_OscConfig+0x772>
            {
              if((HAL_GetTick() - tickstart) > PLL_TIMEOUT_VALUE)
 8002754:	f7fe f808 	bl	8000768 <HAL_GetTick>
 8002758:	4602      	mov	r2, r0
 800275a:	693b      	ldr	r3, [r7, #16]
 800275c:	1ad3      	subs	r3, r2, r3
 800275e:	2b02      	cmp	r3, #2
 8002760:	d901      	bls.n	8002766 <HAL_RCC_OscConfig+0x772>
              {
                return HAL_TIMEOUT;
 8002762:	2303      	movs	r3, #3
 8002764:	e058      	b.n	8002818 <HAL_RCC_OscConfig+0x824>
            while(READ_BIT(RCC->CR, RCC_CR_PLLRDY) == 0U)
 8002766:	4b04      	ldr	r3, [pc, #16]	@ (8002778 <HAL_RCC_OscConfig+0x784>)
 8002768:	681b      	ldr	r3, [r3, #0]
 800276a:	f003 7300 	and.w	r3, r3, #33554432	@ 0x2000000
 800276e:	2b00      	cmp	r3, #0
 8002770:	d0f0      	beq.n	8002754 <HAL_RCC_OscConfig+0x760>
        if(sysclk_source != RCC_CFGR_SWS_PLL)
 8002772:	e050      	b.n	8002816 <HAL_RCC_OscConfig+0x822>
          }
        }
        else
        {
          /* PLL is already used as System core clock */
          return HAL_ERROR;
 8002774:	2301      	movs	r3, #1
 8002776:	e04f      	b.n	8002818 <HAL_RCC_OscConfig+0x824>
 8002778:	40021000 	.word	0x40021000
 800277c:	019d800c 	.word	0x019d800c
      }
      else
      {
        /* PLL configuration is unchanged */
        /* Re-enable PLL if it was disabled (ie. low power mode) */
        if(READ_BIT(RCC->CR, RCC_CR_PLLRDY) == 0U)
 8002780:	4b27      	ldr	r3, [pc, #156]	@ (8002820 <HAL_RCC_OscConfig+0x82c>)
 8002782:	681b      	ldr	r3, [r3, #0]
 8002784:	f003 7300 	and.w	r3, r3, #33554432	@ 0x2000000
 8002788:	2b00      	cmp	r3, #0
 800278a:	d144      	bne.n	8002816 <HAL_RCC_OscConfig+0x822>
        {
          /* Enable the main PLL. */
          __HAL_RCC_PLL_ENABLE();
 800278c:	4b24      	ldr	r3, [pc, #144]	@ (8002820 <HAL_RCC_OscConfig+0x82c>)
 800278e:	681b      	ldr	r3, [r3, #0]
 8002790:	4a23      	ldr	r2, [pc, #140]	@ (8002820 <HAL_RCC_OscConfig+0x82c>)
 8002792:	f043 7380 	orr.w	r3, r3, #16777216	@ 0x1000000
 8002796:	6013      	str	r3, [r2, #0]

          /* Enable PLL System Clock output. */
          __HAL_RCC_PLLCLKOUT_ENABLE(RCC_PLL_SYSCLK);
 8002798:	4b21      	ldr	r3, [pc, #132]	@ (8002820 <HAL_RCC_OscConfig+0x82c>)
 800279a:	68db      	ldr	r3, [r3, #12]
 800279c:	4a20      	ldr	r2, [pc, #128]	@ (8002820 <HAL_RCC_OscConfig+0x82c>)
 800279e:	f043 7380 	orr.w	r3, r3, #16777216	@ 0x1000000
 80027a2:	60d3      	str	r3, [r2, #12]

          /* Get Start Tick*/
          tickstart = HAL_GetTick();
 80027a4:	f7fd ffe0 	bl	8000768 <HAL_GetTick>
 80027a8:	6138      	str	r0, [r7, #16]

          /* Wait till PLL is ready */
          while(READ_BIT(RCC->CR, RCC_CR_PLLRDY) == 0U)
 80027aa:	e008      	b.n	80027be <HAL_RCC_OscConfig+0x7ca>
          {
            if((HAL_GetTick() - tickstart) > PLL_TIMEOUT_VALUE)
 80027ac:	f7fd ffdc 	bl	8000768 <HAL_GetTick>
 80027b0:	4602      	mov	r2, r0
 80027b2:	693b      	ldr	r3, [r7, #16]
 80027b4:	1ad3      	subs	r3, r2, r3
 80027b6:	2b02      	cmp	r3, #2
 80027b8:	d901      	bls.n	80027be <HAL_RCC_OscConfig+0x7ca>
            {
              return HAL_TIMEOUT;
 80027ba:	2303      	movs	r3, #3
 80027bc:	e02c      	b.n	8002818 <HAL_RCC_OscConfig+0x824>
          while(READ_BIT(RCC->CR, RCC_CR_PLLRDY) == 0U)
 80027be:	4b18      	ldr	r3, [pc, #96]	@ (8002820 <HAL_RCC_OscConfig+0x82c>)
 80027c0:	681b      	ldr	r3, [r3, #0]
 80027c2:	f003 7300 	and.w	r3, r3, #33554432	@ 0x2000000
 80027c6:	2b00      	cmp	r3, #0
 80027c8:	d0f0      	beq.n	80027ac <HAL_RCC_OscConfig+0x7b8>
 80027ca:	e024      	b.n	8002816 <HAL_RCC_OscConfig+0x822>
      }
    }
    else
    {
      /* Check that PLL is not used as system clock or not */
      if(sysclk_source != RCC_CFGR_SWS_PLL)
 80027cc:	69bb      	ldr	r3, [r7, #24]
 80027ce:	2b0c      	cmp	r3, #12
 80027d0:	d01f      	beq.n	8002812 <HAL_RCC_OscConfig+0x81e>
      {
        /* Disable the main PLL. */
        __HAL_RCC_PLL_DISABLE();
 80027d2:	4b13      	ldr	r3, [pc, #76]	@ (8002820 <HAL_RCC_OscConfig+0x82c>)
 80027d4:	681b      	ldr	r3, [r3, #0]
 80027d6:	4a12      	ldr	r2, [pc, #72]	@ (8002820 <HAL_RCC_OscConfig+0x82c>)
 80027d8:	f023 7380 	bic.w	r3, r3, #16777216	@ 0x1000000
 80027dc:	6013      	str	r3, [r2, #0]

        /* Get Start Tick*/
        tickstart = HAL_GetTick();
 80027de:	f7fd ffc3 	bl	8000768 <HAL_GetTick>
 80027e2:	6138      	str	r0, [r7, #16]

        /* Wait till PLL is disabled */
        while(READ_BIT(RCC->CR, RCC_CR_PLLRDY) != 0U)
 80027e4:	e008      	b.n	80027f8 <HAL_RCC_OscConfig+0x804>
        {
          if((HAL_GetTick() - tickstart) > PLL_TIMEOUT_VALUE)
 80027e6:	f7fd ffbf 	bl	8000768 <HAL_GetTick>
 80027ea:	4602      	mov	r2, r0
 80027ec:	693b      	ldr	r3, [r7, #16]
 80027ee:	1ad3      	subs	r3, r2, r3
 80027f0:	2b02      	cmp	r3, #2
 80027f2:	d901      	bls.n	80027f8 <HAL_RCC_OscConfig+0x804>
          {
            return HAL_TIMEOUT;
 80027f4:	2303      	movs	r3, #3
 80027f6:	e00f      	b.n	8002818 <HAL_RCC_OscConfig+0x824>
        while(READ_BIT(RCC->CR, RCC_CR_PLLRDY) != 0U)
 80027f8:	4b09      	ldr	r3, [pc, #36]	@ (8002820 <HAL_RCC_OscConfig+0x82c>)
 80027fa:	681b      	ldr	r3, [r3, #0]
 80027fc:	f003 7300 	and.w	r3, r3, #33554432	@ 0x2000000
 8002800:	2b00      	cmp	r3, #0
 8002802:	d1f0      	bne.n	80027e6 <HAL_RCC_OscConfig+0x7f2>
          }
        }
        /* Unselect main PLL clock source and disable main PLL outputs to save power */
#if defined(RCC_PLLSAI2_SUPPORT)
        RCC->PLLCFGR &= ~(RCC_PLLCFGR_PLLSRC | RCC_PLL_SYSCLK | RCC_PLL_48M1CLK | RCC_PLL_SAI3CLK);
 8002804:	4b06      	ldr	r3, [pc, #24]	@ (8002820 <HAL_RCC_OscConfig+0x82c>)
 8002806:	68da      	ldr	r2, [r3, #12]
 8002808:	4905      	ldr	r1, [pc, #20]	@ (8002820 <HAL_RCC_OscConfig+0x82c>)
 800280a:	4b06      	ldr	r3, [pc, #24]	@ (8002824 <HAL_RCC_OscConfig+0x830>)
 800280c:	4013      	ands	r3, r2
 800280e:	60cb      	str	r3, [r1, #12]
 8002810:	e001      	b.n	8002816 <HAL_RCC_OscConfig+0x822>
#endif /* RCC_PLLSAI2_SUPPORT */
      }
      else
      {
        /* PLL is already used as System core clock */
        return HAL_ERROR;
 8002812:	2301      	movs	r3, #1
 8002814:	e000      	b.n	8002818 <HAL_RCC_OscConfig+0x824>
      }
    }
  }
  return HAL_OK;
 8002816:	2300      	movs	r3, #0
}
 8002818:	4618      	mov	r0, r3
 800281a:	3720      	adds	r7, #32
 800281c:	46bd      	mov	sp, r7
 800281e:	bd80      	pop	{r7, pc}
 8002820:	40021000 	.word	0x40021000
 8002824:	feeefffc 	.word	0xfeeefffc

08002828 <HAL_RCC_ClockConfig>:
  *         HPRE[3:0] bits to ensure that HCLK not exceed the maximum allowed frequency
  *         (for more details refer to section above "Initialization/de-initialization functions")
  * @retval None
  */
HAL_StatusTypeDef HAL_RCC_ClockConfig(RCC_ClkInitTypeDef  *RCC_ClkInitStruct, uint32_t FLatency)
{
 8002828:	b580      	push	{r7, lr}
 800282a:	b086      	sub	sp, #24
 800282c:	af00      	add	r7, sp, #0
 800282e:	6078      	str	r0, [r7, #4]
 8002830:	6039      	str	r1, [r7, #0]
  uint32_t tickstart;
#if defined(STM32L4P5xx) || defined(STM32L4Q5xx) || \
    defined(STM32L4R5xx) || defined(STM32L4R7xx) || defined(STM32L4R9xx) || defined(STM32L4S5xx) || defined(STM32L4S7xx) || defined(STM32L4S9xx)
  uint32_t hpre = RCC_SYSCLK_DIV1;
 8002832:	2300      	movs	r3, #0
 8002834:	617b      	str	r3, [r7, #20]
#endif
  HAL_StatusTypeDef status;

  /* Check Null pointer */
  if(RCC_ClkInitStruct == NULL)
 8002836:	687b      	ldr	r3, [r7, #4]
 8002838:	2b00      	cmp	r3, #0
 800283a:	d101      	bne.n	8002840 <HAL_RCC_ClockConfig+0x18>
  {
    return HAL_ERROR;
 800283c:	2301      	movs	r3, #1
 800283e:	e11d      	b.n	8002a7c <HAL_RCC_ClockConfig+0x254>
  /* To correctly read data from FLASH memory, the number of wait states (LATENCY)
    must be correctly programmed according to the frequency of the CPU clock
    (HCLK) and the supply voltage of the device. */

  /* Increasing the number of wait states because of higher CPU frequency */
  if(FLatency > __HAL_FLASH_GET_LATENCY())
 8002840:	4b90      	ldr	r3, [pc, #576]	@ (8002a84 <HAL_RCC_ClockConfig+0x25c>)
 8002842:	681b      	ldr	r3, [r3, #0]
 8002844:	f003 030f 	and.w	r3, r3, #15
 8002848:	683a      	ldr	r2, [r7, #0]
 800284a:	429a      	cmp	r2, r3
 800284c:	d910      	bls.n	8002870 <HAL_RCC_ClockConfig+0x48>
  {
    /* Program the new number of wait states to the LATENCY bits in the FLASH_ACR register */
    __HAL_FLASH_SET_LATENCY(FLatency);
 800284e:	4b8d      	ldr	r3, [pc, #564]	@ (8002a84 <HAL_RCC_ClockConfig+0x25c>)
 8002850:	681b      	ldr	r3, [r3, #0]
 8002852:	f023 020f 	bic.w	r2, r3, #15
 8002856:	498b      	ldr	r1, [pc, #556]	@ (8002a84 <HAL_RCC_ClockConfig+0x25c>)
 8002858:	683b      	ldr	r3, [r7, #0]
 800285a:	4313      	orrs	r3, r2
 800285c:	600b      	str	r3, [r1, #0]

    /* Check that the new number of wait states is taken into account to access the Flash
    memory by reading the FLASH_ACR register */
    if(__HAL_FLASH_GET_LATENCY() != FLatency)
 800285e:	4b89      	ldr	r3, [pc, #548]	@ (8002a84 <HAL_RCC_ClockConfig+0x25c>)
 8002860:	681b      	ldr	r3, [r3, #0]
 8002862:	f003 030f 	and.w	r3, r3, #15
 8002866:	683a      	ldr	r2, [r7, #0]
 8002868:	429a      	cmp	r2, r3
 800286a:	d001      	beq.n	8002870 <HAL_RCC_ClockConfig+0x48>
    {
      return HAL_ERROR;
 800286c:	2301      	movs	r3, #1
 800286e:	e105      	b.n	8002a7c <HAL_RCC_ClockConfig+0x254>
    }
  }

  /*----------------- HCLK Configuration prior to SYSCLK----------------------*/
  /* Apply higher HCLK prescaler request here to ensure CPU clock is not of of spec when SYSCLK is increased */
  if(((RCC_ClkInitStruct->ClockType) & RCC_CLOCKTYPE_HCLK) == RCC_CLOCKTYPE_HCLK)
 8002870:	687b      	ldr	r3, [r7, #4]
 8002872:	681b      	ldr	r3, [r3, #0]
 8002874:	f003 0302 	and.w	r3, r3, #2
 8002878:	2b00      	cmp	r3, #0
 800287a:	d010      	beq.n	800289e <HAL_RCC_ClockConfig+0x76>
  {
    assert_param(IS_RCC_HCLK(RCC_ClkInitStruct->AHBCLKDivider));

    if(RCC_ClkInitStruct->AHBCLKDivider > READ_BIT(RCC->CFGR, RCC_CFGR_HPRE))
 800287c:	687b      	ldr	r3, [r7, #4]
 800287e:	689a      	ldr	r2, [r3, #8]
 8002880:	4b81      	ldr	r3, [pc, #516]	@ (8002a88 <HAL_RCC_ClockConfig+0x260>)
 8002882:	689b      	ldr	r3, [r3, #8]
 8002884:	f003 03f0 	and.w	r3, r3, #240	@ 0xf0
 8002888:	429a      	cmp	r2, r3
 800288a:	d908      	bls.n	800289e <HAL_RCC_ClockConfig+0x76>
    {
      MODIFY_REG(RCC->CFGR, RCC_CFGR_HPRE, RCC_ClkInitStruct->AHBCLKDivider);
 800288c:	4b7e      	ldr	r3, [pc, #504]	@ (8002a88 <HAL_RCC_ClockConfig+0x260>)
 800288e:	689b      	ldr	r3, [r3, #8]
 8002890:	f023 02f0 	bic.w	r2, r3, #240	@ 0xf0
 8002894:	687b      	ldr	r3, [r7, #4]
 8002896:	689b      	ldr	r3, [r3, #8]
 8002898:	497b      	ldr	r1, [pc, #492]	@ (8002a88 <HAL_RCC_ClockConfig+0x260>)
 800289a:	4313      	orrs	r3, r2
 800289c:	608b      	str	r3, [r1, #8]
    }
  }

  /*------------------------- SYSCLK Configuration ---------------------------*/
  if(((RCC_ClkInitStruct->ClockType) & RCC_CLOCKTYPE_SYSCLK) == RCC_CLOCKTYPE_SYSCLK)
 800289e:	687b      	ldr	r3, [r7, #4]
 80028a0:	681b      	ldr	r3, [r3, #0]
 80028a2:	f003 0301 	and.w	r3, r3, #1
 80028a6:	2b00      	cmp	r3, #0
 80028a8:	d079      	beq.n	800299e <HAL_RCC_ClockConfig+0x176>
  {
    assert_param(IS_RCC_SYSCLKSOURCE(RCC_ClkInitStruct->SYSCLKSource));

    /* PLL is selected as System Clock Source */
    if(RCC_ClkInitStruct->SYSCLKSource == RCC_SYSCLKSOURCE_PLLCLK)
 80028aa:	687b      	ldr	r3, [r7, #4]
 80028ac:	685b      	ldr	r3, [r3, #4]
 80028ae:	2b03      	cmp	r3, #3
 80028b0:	d11e      	bne.n	80028f0 <HAL_RCC_ClockConfig+0xc8>
    {
      /* Check the PLL ready flag */
      if(READ_BIT(RCC->CR, RCC_CR_PLLRDY) == 0U)
 80028b2:	4b75      	ldr	r3, [pc, #468]	@ (8002a88 <HAL_RCC_ClockConfig+0x260>)
 80028b4:	681b      	ldr	r3, [r3, #0]
 80028b6:	f003 7300 	and.w	r3, r3, #33554432	@ 0x2000000
 80028ba:	2b00      	cmp	r3, #0
 80028bc:	d101      	bne.n	80028c2 <HAL_RCC_ClockConfig+0x9a>
      {
        return HAL_ERROR;
 80028be:	2301      	movs	r3, #1
 80028c0:	e0dc      	b.n	8002a7c <HAL_RCC_ClockConfig+0x254>
      }
#if defined(STM32L4P5xx) || defined(STM32L4Q5xx) || \
    defined(STM32L4R5xx) || defined(STM32L4R7xx) || defined(STM32L4R9xx) || defined(STM32L4S5xx) || defined(STM32L4S7xx) || defined(STM32L4S9xx)
      /* Undershoot management when selection PLL as SYSCLK source and frequency above 80Mhz */
      /* Compute target PLL output frequency */
      if(RCC_GetSysClockFreqFromPLLSource() > 80000000U)
 80028c2:	f000 f9d1 	bl	8002c68 <RCC_GetSysClockFreqFromPLLSource>
 80028c6:	4603      	mov	r3, r0
 80028c8:	4a70      	ldr	r2, [pc, #448]	@ (8002a8c <HAL_RCC_ClockConfig+0x264>)
 80028ca:	4293      	cmp	r3, r2
 80028cc:	d946      	bls.n	800295c <HAL_RCC_ClockConfig+0x134>
      {
        /* If lowest HCLK prescaler, apply intermediate step with HCLK prescaler 2 necessary before to go over 80Mhz */
        if(READ_BIT(RCC->CFGR, RCC_CFGR_HPRE) == RCC_SYSCLK_DIV1)
 80028ce:	4b6e      	ldr	r3, [pc, #440]	@ (8002a88 <HAL_RCC_ClockConfig+0x260>)
 80028d0:	689b      	ldr	r3, [r3, #8]
 80028d2:	f003 03f0 	and.w	r3, r3, #240	@ 0xf0
 80028d6:	2b00      	cmp	r3, #0
 80028d8:	d140      	bne.n	800295c <HAL_RCC_ClockConfig+0x134>
        {
          MODIFY_REG(RCC->CFGR, RCC_CFGR_HPRE, RCC_SYSCLK_DIV2);
 80028da:	4b6b      	ldr	r3, [pc, #428]	@ (8002a88 <HAL_RCC_ClockConfig+0x260>)
 80028dc:	689b      	ldr	r3, [r3, #8]
 80028de:	f023 03f0 	bic.w	r3, r3, #240	@ 0xf0
 80028e2:	4a69      	ldr	r2, [pc, #420]	@ (8002a88 <HAL_RCC_ClockConfig+0x260>)
 80028e4:	f043 0380 	orr.w	r3, r3, #128	@ 0x80
 80028e8:	6093      	str	r3, [r2, #8]
          hpre = RCC_SYSCLK_DIV2;
 80028ea:	2380      	movs	r3, #128	@ 0x80
 80028ec:	617b      	str	r3, [r7, #20]
 80028ee:	e035      	b.n	800295c <HAL_RCC_ClockConfig+0x134>
#endif
    }
    else
    {
      /* HSE is selected as System Clock Source */
      if(RCC_ClkInitStruct->SYSCLKSource == RCC_SYSCLKSOURCE_HSE)
 80028f0:	687b      	ldr	r3, [r7, #4]
 80028f2:	685b      	ldr	r3, [r3, #4]
 80028f4:	2b02      	cmp	r3, #2
 80028f6:	d107      	bne.n	8002908 <HAL_RCC_ClockConfig+0xe0>
      {
        /* Check the HSE ready flag */
        if(READ_BIT(RCC->CR, RCC_CR_HSERDY) == 0U)
 80028f8:	4b63      	ldr	r3, [pc, #396]	@ (8002a88 <HAL_RCC_ClockConfig+0x260>)
 80028fa:	681b      	ldr	r3, [r3, #0]
 80028fc:	f403 3300 	and.w	r3, r3, #131072	@ 0x20000
 8002900:	2b00      	cmp	r3, #0
 8002902:	d115      	bne.n	8002930 <HAL_RCC_ClockConfig+0x108>
        {
          return HAL_ERROR;
 8002904:	2301      	movs	r3, #1
 8002906:	e0b9      	b.n	8002a7c <HAL_RCC_ClockConfig+0x254>
        }
      }
      /* MSI is selected as System Clock Source */
      else if(RCC_ClkInitStruct->SYSCLKSource == RCC_SYSCLKSOURCE_MSI)
 8002908:	687b      	ldr	r3, [r7, #4]
 800290a:	685b      	ldr	r3, [r3, #4]
 800290c:	2b00      	cmp	r3, #0
 800290e:	d107      	bne.n	8002920 <HAL_RCC_ClockConfig+0xf8>
      {
        /* Check the MSI ready flag */
        if(READ_BIT(RCC->CR, RCC_CR_MSIRDY) == 0U)
 8002910:	4b5d      	ldr	r3, [pc, #372]	@ (8002a88 <HAL_RCC_ClockConfig+0x260>)
 8002912:	681b      	ldr	r3, [r3, #0]
 8002914:	f003 0302 	and.w	r3, r3, #2
 8002918:	2b00      	cmp	r3, #0
 800291a:	d109      	bne.n	8002930 <HAL_RCC_ClockConfig+0x108>
        {
          return HAL_ERROR;
 800291c:	2301      	movs	r3, #1
 800291e:	e0ad      	b.n	8002a7c <HAL_RCC_ClockConfig+0x254>
      }
      /* HSI is selected as System Clock Source */
      else
      {
        /* Check the HSI ready flag */
        if(READ_BIT(RCC->CR, RCC_CR_HSIRDY) == 0U)
 8002920:	4b59      	ldr	r3, [pc, #356]	@ (8002a88 <HAL_RCC_ClockConfig+0x260>)
 8002922:	681b      	ldr	r3, [r3, #0]
 8002924:	f403 6380 	and.w	r3, r3, #1024	@ 0x400
 8002928:	2b00      	cmp	r3, #0
 800292a:	d101      	bne.n	8002930 <HAL_RCC_ClockConfig+0x108>
        {
          return HAL_ERROR;
 800292c:	2301      	movs	r3, #1
 800292e:	e0a5      	b.n	8002a7c <HAL_RCC_ClockConfig+0x254>
        }
      }
#if defined(STM32L4P5xx) || defined(STM32L4Q5xx) || \
    defined(STM32L4R5xx) || defined(STM32L4R7xx) || defined(STM32L4R9xx) || defined(STM32L4S5xx) || defined(STM32L4S7xx) || defined(STM32L4S9xx)
      /* Overshoot management when going down from PLL as SYSCLK source and frequency above 80Mhz */
      if(HAL_RCC_GetSysClockFreq() > 80000000U)
 8002930:	f000 f8b4 	bl	8002a9c <HAL_RCC_GetSysClockFreq>
 8002934:	4603      	mov	r3, r0
 8002936:	4a55      	ldr	r2, [pc, #340]	@ (8002a8c <HAL_RCC_ClockConfig+0x264>)
 8002938:	4293      	cmp	r3, r2
 800293a:	d90f      	bls.n	800295c <HAL_RCC_ClockConfig+0x134>
      {
        /* If lowest HCLK prescaler, apply intermediate step with HCLK prescaler 2 necessary before to go under 80Mhz */
        if(READ_BIT(RCC->CFGR, RCC_CFGR_HPRE) == RCC_SYSCLK_DIV1)
 800293c:	4b52      	ldr	r3, [pc, #328]	@ (8002a88 <HAL_RCC_ClockConfig+0x260>)
 800293e:	689b      	ldr	r3, [r3, #8]
 8002940:	f003 03f0 	and.w	r3, r3, #240	@ 0xf0
 8002944:	2b00      	cmp	r3, #0
 8002946:	d109      	bne.n	800295c <HAL_RCC_ClockConfig+0x134>
        {
          MODIFY_REG(RCC->CFGR, RCC_CFGR_HPRE, RCC_SYSCLK_DIV2);
 8002948:	4b4f      	ldr	r3, [pc, #316]	@ (8002a88 <HAL_RCC_ClockConfig+0x260>)
 800294a:	689b      	ldr	r3, [r3, #8]
 800294c:	f023 03f0 	bic.w	r3, r3, #240	@ 0xf0
 8002950:	4a4d      	ldr	r2, [pc, #308]	@ (8002a88 <HAL_RCC_ClockConfig+0x260>)
 8002952:	f043 0380 	orr.w	r3, r3, #128	@ 0x80
 8002956:	6093      	str	r3, [r2, #8]
          hpre = RCC_SYSCLK_DIV2;
 8002958:	2380      	movs	r3, #128	@ 0x80
 800295a:	617b      	str	r3, [r7, #20]
      }
#endif

    }

    MODIFY_REG(RCC->CFGR, RCC_CFGR_SW, RCC_ClkInitStruct->SYSCLKSource);
 800295c:	4b4a      	ldr	r3, [pc, #296]	@ (8002a88 <HAL_RCC_ClockConfig+0x260>)
 800295e:	689b      	ldr	r3, [r3, #8]
 8002960:	f023 0203 	bic.w	r2, r3, #3
 8002964:	687b      	ldr	r3, [r7, #4]
 8002966:	685b      	ldr	r3, [r3, #4]
 8002968:	4947      	ldr	r1, [pc, #284]	@ (8002a88 <HAL_RCC_ClockConfig+0x260>)
 800296a:	4313      	orrs	r3, r2
 800296c:	608b      	str	r3, [r1, #8]

    /* Get Start Tick*/
    tickstart = HAL_GetTick();
 800296e:	f7fd fefb 	bl	8000768 <HAL_GetTick>
 8002972:	6138      	str	r0, [r7, #16]

    while(__HAL_RCC_GET_SYSCLK_SOURCE() != (RCC_ClkInitStruct->SYSCLKSource << RCC_CFGR_SWS_Pos))
 8002974:	e00a      	b.n	800298c <HAL_RCC_ClockConfig+0x164>
    {
      if((HAL_GetTick() - tickstart) > CLOCKSWITCH_TIMEOUT_VALUE)
 8002976:	f7fd fef7 	bl	8000768 <HAL_GetTick>
 800297a:	4602      	mov	r2, r0
 800297c:	693b      	ldr	r3, [r7, #16]
 800297e:	1ad3      	subs	r3, r2, r3
 8002980:	f241 3288 	movw	r2, #5000	@ 0x1388
 8002984:	4293      	cmp	r3, r2
 8002986:	d901      	bls.n	800298c <HAL_RCC_ClockConfig+0x164>
      {
        return HAL_TIMEOUT;
 8002988:	2303      	movs	r3, #3
 800298a:	e077      	b.n	8002a7c <HAL_RCC_ClockConfig+0x254>
    while(__HAL_RCC_GET_SYSCLK_SOURCE() != (RCC_ClkInitStruct->SYSCLKSource << RCC_CFGR_SWS_Pos))
 800298c:	4b3e      	ldr	r3, [pc, #248]	@ (8002a88 <HAL_RCC_ClockConfig+0x260>)
 800298e:	689b      	ldr	r3, [r3, #8]
 8002990:	f003 020c 	and.w	r2, r3, #12
 8002994:	687b      	ldr	r3, [r7, #4]
 8002996:	685b      	ldr	r3, [r3, #4]
 8002998:	009b      	lsls	r3, r3, #2
 800299a:	429a      	cmp	r2, r3
 800299c:	d1eb      	bne.n	8002976 <HAL_RCC_ClockConfig+0x14e>
  }

#if defined(STM32L4P5xx) || defined(STM32L4Q5xx) || \
    defined(STM32L4R5xx) || defined(STM32L4R7xx) || defined(STM32L4R9xx) || defined(STM32L4S5xx) || defined(STM32L4S7xx) || defined(STM32L4S9xx)
  /* Is intermediate HCLK prescaler 2 applied internally, resume with HCLK prescaler 1 */
  if(hpre == RCC_SYSCLK_DIV2)
 800299e:	697b      	ldr	r3, [r7, #20]
 80029a0:	2b80      	cmp	r3, #128	@ 0x80
 80029a2:	d105      	bne.n	80029b0 <HAL_RCC_ClockConfig+0x188>
  {
    MODIFY_REG(RCC->CFGR, RCC_CFGR_HPRE, RCC_SYSCLK_DIV1);
 80029a4:	4b38      	ldr	r3, [pc, #224]	@ (8002a88 <HAL_RCC_ClockConfig+0x260>)
 80029a6:	689b      	ldr	r3, [r3, #8]
 80029a8:	4a37      	ldr	r2, [pc, #220]	@ (8002a88 <HAL_RCC_ClockConfig+0x260>)
 80029aa:	f023 03f0 	bic.w	r3, r3, #240	@ 0xf0
 80029ae:	6093      	str	r3, [r2, #8]
  }
#endif

  /*----------------- HCLK Configuration after SYSCLK-------------------------*/
  /* Apply lower HCLK prescaler request here to ensure CPU clock is not of of spec when SYSCLK is set */
  if(((RCC_ClkInitStruct->ClockType) & RCC_CLOCKTYPE_HCLK) == RCC_CLOCKTYPE_HCLK)
 80029b0:	687b      	ldr	r3, [r7, #4]
 80029b2:	681b      	ldr	r3, [r3, #0]
 80029b4:	f003 0302 	and.w	r3, r3, #2
 80029b8:	2b00      	cmp	r3, #0
 80029ba:	d010      	beq.n	80029de <HAL_RCC_ClockConfig+0x1b6>
  {
    if(RCC_ClkInitStruct->AHBCLKDivider < READ_BIT(RCC->CFGR, RCC_CFGR_HPRE))
 80029bc:	687b      	ldr	r3, [r7, #4]
 80029be:	689a      	ldr	r2, [r3, #8]
 80029c0:	4b31      	ldr	r3, [pc, #196]	@ (8002a88 <HAL_RCC_ClockConfig+0x260>)
 80029c2:	689b      	ldr	r3, [r3, #8]
 80029c4:	f003 03f0 	and.w	r3, r3, #240	@ 0xf0
 80029c8:	429a      	cmp	r2, r3
 80029ca:	d208      	bcs.n	80029de <HAL_RCC_ClockConfig+0x1b6>
    {
      MODIFY_REG(RCC->CFGR, RCC_CFGR_HPRE, RCC_ClkInitStruct->AHBCLKDivider);
 80029cc:	4b2e      	ldr	r3, [pc, #184]	@ (8002a88 <HAL_RCC_ClockConfig+0x260>)
 80029ce:	689b      	ldr	r3, [r3, #8]
 80029d0:	f023 02f0 	bic.w	r2, r3, #240	@ 0xf0
 80029d4:	687b      	ldr	r3, [r7, #4]
 80029d6:	689b      	ldr	r3, [r3, #8]
 80029d8:	492b      	ldr	r1, [pc, #172]	@ (8002a88 <HAL_RCC_ClockConfig+0x260>)
 80029da:	4313      	orrs	r3, r2
 80029dc:	608b      	str	r3, [r1, #8]
    }
  }

  /* Allow decreasing of the number of wait states (because of lower CPU frequency expected) */
  if(FLatency < __HAL_FLASH_GET_LATENCY())
 80029de:	4b29      	ldr	r3, [pc, #164]	@ (8002a84 <HAL_RCC_ClockConfig+0x25c>)
 80029e0:	681b      	ldr	r3, [r3, #0]
 80029e2:	f003 030f 	and.w	r3, r3, #15
 80029e6:	683a      	ldr	r2, [r7, #0]
 80029e8:	429a      	cmp	r2, r3
 80029ea:	d210      	bcs.n	8002a0e <HAL_RCC_ClockConfig+0x1e6>
  {
    /* Program the new number of wait states to the LATENCY bits in the FLASH_ACR register */
    __HAL_FLASH_SET_LATENCY(FLatency);
 80029ec:	4b25      	ldr	r3, [pc, #148]	@ (8002a84 <HAL_RCC_ClockConfig+0x25c>)
 80029ee:	681b      	ldr	r3, [r3, #0]
 80029f0:	f023 020f 	bic.w	r2, r3, #15
 80029f4:	4923      	ldr	r1, [pc, #140]	@ (8002a84 <HAL_RCC_ClockConfig+0x25c>)
 80029f6:	683b      	ldr	r3, [r7, #0]
 80029f8:	4313      	orrs	r3, r2
 80029fa:	600b      	str	r3, [r1, #0]

    /* Check that the new number of wait states is taken into account to access the Flash
    memory by reading the FLASH_ACR register */
    if(__HAL_FLASH_GET_LATENCY() != FLatency)
 80029fc:	4b21      	ldr	r3, [pc, #132]	@ (8002a84 <HAL_RCC_ClockConfig+0x25c>)
 80029fe:	681b      	ldr	r3, [r3, #0]
 8002a00:	f003 030f 	and.w	r3, r3, #15
 8002a04:	683a      	ldr	r2, [r7, #0]
 8002a06:	429a      	cmp	r2, r3
 8002a08:	d001      	beq.n	8002a0e <HAL_RCC_ClockConfig+0x1e6>
    {
      return HAL_ERROR;
 8002a0a:	2301      	movs	r3, #1
 8002a0c:	e036      	b.n	8002a7c <HAL_RCC_ClockConfig+0x254>
    }
  }

  /*-------------------------- PCLK1 Configuration ---------------------------*/
  if(((RCC_ClkInitStruct->ClockType) & RCC_CLOCKTYPE_PCLK1) == RCC_CLOCKTYPE_PCLK1)
 8002a0e:	687b      	ldr	r3, [r7, #4]
 8002a10:	681b      	ldr	r3, [r3, #0]
 8002a12:	f003 0304 	and.w	r3, r3, #4
 8002a16:	2b00      	cmp	r3, #0
 8002a18:	d008      	beq.n	8002a2c <HAL_RCC_ClockConfig+0x204>
  {
    assert_param(IS_RCC_PCLK(RCC_ClkInitStruct->APB1CLKDivider));
    MODIFY_REG(RCC->CFGR, RCC_CFGR_PPRE1, RCC_ClkInitStruct->APB1CLKDivider);
 8002a1a:	4b1b      	ldr	r3, [pc, #108]	@ (8002a88 <HAL_RCC_ClockConfig+0x260>)
 8002a1c:	689b      	ldr	r3, [r3, #8]
 8002a1e:	f423 62e0 	bic.w	r2, r3, #1792	@ 0x700
 8002a22:	687b      	ldr	r3, [r7, #4]
 8002a24:	68db      	ldr	r3, [r3, #12]
 8002a26:	4918      	ldr	r1, [pc, #96]	@ (8002a88 <HAL_RCC_ClockConfig+0x260>)
 8002a28:	4313      	orrs	r3, r2
 8002a2a:	608b      	str	r3, [r1, #8]
  }

  /*-------------------------- PCLK2 Configuration ---------------------------*/
  if(((RCC_ClkInitStruct->ClockType) & RCC_CLOCKTYPE_PCLK2) == RCC_CLOCKTYPE_PCLK2)
 8002a2c:	687b      	ldr	r3, [r7, #4]
 8002a2e:	681b      	ldr	r3, [r3, #0]
 8002a30:	f003 0308 	and.w	r3, r3, #8
 8002a34:	2b00      	cmp	r3, #0
 8002a36:	d009      	beq.n	8002a4c <HAL_RCC_ClockConfig+0x224>
  {
    assert_param(IS_RCC_PCLK(RCC_ClkInitStruct->APB2CLKDivider));
    MODIFY_REG(RCC->CFGR, RCC_CFGR_PPRE2, ((RCC_ClkInitStruct->APB2CLKDivider) << 3U));
 8002a38:	4b13      	ldr	r3, [pc, #76]	@ (8002a88 <HAL_RCC_ClockConfig+0x260>)
 8002a3a:	689b      	ldr	r3, [r3, #8]
 8002a3c:	f423 5260 	bic.w	r2, r3, #14336	@ 0x3800
 8002a40:	687b      	ldr	r3, [r7, #4]
 8002a42:	691b      	ldr	r3, [r3, #16]
 8002a44:	00db      	lsls	r3, r3, #3
 8002a46:	4910      	ldr	r1, [pc, #64]	@ (8002a88 <HAL_RCC_ClockConfig+0x260>)
 8002a48:	4313      	orrs	r3, r2
 8002a4a:	608b      	str	r3, [r1, #8]
  }

  /* Update the SystemCoreClock global variable */
  SystemCoreClock = HAL_RCC_GetSysClockFreq() >> (AHBPrescTable[READ_BIT(RCC->CFGR, RCC_CFGR_HPRE) >> RCC_CFGR_HPRE_Pos] & 0x1FU);
 8002a4c:	f000 f826 	bl	8002a9c <HAL_RCC_GetSysClockFreq>
 8002a50:	4602      	mov	r2, r0
 8002a52:	4b0d      	ldr	r3, [pc, #52]	@ (8002a88 <HAL_RCC_ClockConfig+0x260>)
 8002a54:	689b      	ldr	r3, [r3, #8]
 8002a56:	091b      	lsrs	r3, r3, #4
 8002a58:	f003 030f 	and.w	r3, r3, #15
 8002a5c:	490c      	ldr	r1, [pc, #48]	@ (8002a90 <HAL_RCC_ClockConfig+0x268>)
 8002a5e:	5ccb      	ldrb	r3, [r1, r3]
 8002a60:	f003 031f 	and.w	r3, r3, #31
 8002a64:	fa22 f303 	lsr.w	r3, r2, r3
 8002a68:	4a0a      	ldr	r2, [pc, #40]	@ (8002a94 <HAL_RCC_ClockConfig+0x26c>)
 8002a6a:	6013      	str	r3, [r2, #0]

  /* Configure the source of time base considering new system clocks settings*/
  status = HAL_InitTick(uwTickPrio);
 8002a6c:	4b0a      	ldr	r3, [pc, #40]	@ (8002a98 <HAL_RCC_ClockConfig+0x270>)
 8002a6e:	681b      	ldr	r3, [r3, #0]
 8002a70:	4618      	mov	r0, r3
 8002a72:	f7fd fe29 	bl	80006c8 <HAL_InitTick>
 8002a76:	4603      	mov	r3, r0
 8002a78:	73fb      	strb	r3, [r7, #15]

  return status;
 8002a7a:	7bfb      	ldrb	r3, [r7, #15]
}
 8002a7c:	4618      	mov	r0, r3
 8002a7e:	3718      	adds	r7, #24
 8002a80:	46bd      	mov	sp, r7
 8002a82:	bd80      	pop	{r7, pc}
 8002a84:	40022000 	.word	0x40022000
 8002a88:	40021000 	.word	0x40021000
 8002a8c:	04c4b400 	.word	0x04c4b400
 8002a90:	080037d4 	.word	0x080037d4
 8002a94:	20000000 	.word	0x20000000
 8002a98:	20000004 	.word	0x20000004

08002a9c <HAL_RCC_GetSysClockFreq>:
  *
  *
  * @retval SYSCLK frequency
  */
uint32_t HAL_RCC_GetSysClockFreq(void)
{
 8002a9c:	b480      	push	{r7}
 8002a9e:	b089      	sub	sp, #36	@ 0x24
 8002aa0:	af00      	add	r7, sp, #0
  uint32_t msirange = 0U, sysclockfreq = 0U;
 8002aa2:	2300      	movs	r3, #0
 8002aa4:	61fb      	str	r3, [r7, #28]
 8002aa6:	2300      	movs	r3, #0
 8002aa8:	61bb      	str	r3, [r7, #24]
  uint32_t pllvco, pllsource, pllr, pllm;    /* no init needed */
  uint32_t sysclk_source, pll_oscsource;

  sysclk_source = __HAL_RCC_GET_SYSCLK_SOURCE();
 8002aaa:	4b3e      	ldr	r3, [pc, #248]	@ (8002ba4 <HAL_RCC_GetSysClockFreq+0x108>)
 8002aac:	689b      	ldr	r3, [r3, #8]
 8002aae:	f003 030c 	and.w	r3, r3, #12
 8002ab2:	613b      	str	r3, [r7, #16]
  pll_oscsource = __HAL_RCC_GET_PLL_OSCSOURCE();
 8002ab4:	4b3b      	ldr	r3, [pc, #236]	@ (8002ba4 <HAL_RCC_GetSysClockFreq+0x108>)
 8002ab6:	68db      	ldr	r3, [r3, #12]
 8002ab8:	f003 0303 	and.w	r3, r3, #3
 8002abc:	60fb      	str	r3, [r7, #12]

  if((sysclk_source == RCC_CFGR_SWS_MSI) ||
 8002abe:	693b      	ldr	r3, [r7, #16]
 8002ac0:	2b00      	cmp	r3, #0
 8002ac2:	d005      	beq.n	8002ad0 <HAL_RCC_GetSysClockFreq+0x34>
 8002ac4:	693b      	ldr	r3, [r7, #16]
 8002ac6:	2b0c      	cmp	r3, #12
 8002ac8:	d121      	bne.n	8002b0e <HAL_RCC_GetSysClockFreq+0x72>
     ((sysclk_source == RCC_CFGR_SWS_PLL) && (pll_oscsource == RCC_PLLSOURCE_MSI)))
 8002aca:	68fb      	ldr	r3, [r7, #12]
 8002acc:	2b01      	cmp	r3, #1
 8002ace:	d11e      	bne.n	8002b0e <HAL_RCC_GetSysClockFreq+0x72>
  {
    /* MSI or PLL with MSI source used as system clock source */

    /* Get SYSCLK source */
    if(READ_BIT(RCC->CR, RCC_CR_MSIRGSEL) == 0U)
 8002ad0:	4b34      	ldr	r3, [pc, #208]	@ (8002ba4 <HAL_RCC_GetSysClockFreq+0x108>)
 8002ad2:	681b      	ldr	r3, [r3, #0]
 8002ad4:	f003 0308 	and.w	r3, r3, #8
 8002ad8:	2b00      	cmp	r3, #0
 8002ada:	d107      	bne.n	8002aec <HAL_RCC_GetSysClockFreq+0x50>
    { /* MSISRANGE from RCC_CSR applies */
      msirange = READ_BIT(RCC->CSR, RCC_CSR_MSISRANGE) >> RCC_CSR_MSISRANGE_Pos;
 8002adc:	4b31      	ldr	r3, [pc, #196]	@ (8002ba4 <HAL_RCC_GetSysClockFreq+0x108>)
 8002ade:	f8d3 3094 	ldr.w	r3, [r3, #148]	@ 0x94
 8002ae2:	0a1b      	lsrs	r3, r3, #8
 8002ae4:	f003 030f 	and.w	r3, r3, #15
 8002ae8:	61fb      	str	r3, [r7, #28]
 8002aea:	e005      	b.n	8002af8 <HAL_RCC_GetSysClockFreq+0x5c>
    }
    else
    { /* MSIRANGE from RCC_CR applies */
      msirange = READ_BIT(RCC->CR, RCC_CR_MSIRANGE) >> RCC_CR_MSIRANGE_Pos;
 8002aec:	4b2d      	ldr	r3, [pc, #180]	@ (8002ba4 <HAL_RCC_GetSysClockFreq+0x108>)
 8002aee:	681b      	ldr	r3, [r3, #0]
 8002af0:	091b      	lsrs	r3, r3, #4
 8002af2:	f003 030f 	and.w	r3, r3, #15
 8002af6:	61fb      	str	r3, [r7, #28]
    }
    /*MSI frequency range in HZ*/
    msirange = MSIRangeTable[msirange];
 8002af8:	4a2b      	ldr	r2, [pc, #172]	@ (8002ba8 <HAL_RCC_GetSysClockFreq+0x10c>)
 8002afa:	69fb      	ldr	r3, [r7, #28]
 8002afc:	f852 3023 	ldr.w	r3, [r2, r3, lsl #2]
 8002b00:	61fb      	str	r3, [r7, #28]

    if(sysclk_source == RCC_CFGR_SWS_MSI)
 8002b02:	693b      	ldr	r3, [r7, #16]
 8002b04:	2b00      	cmp	r3, #0
 8002b06:	d10d      	bne.n	8002b24 <HAL_RCC_GetSysClockFreq+0x88>
    {
      /* MSI used as system clock source */
      sysclockfreq = msirange;
 8002b08:	69fb      	ldr	r3, [r7, #28]
 8002b0a:	61bb      	str	r3, [r7, #24]
    if(sysclk_source == RCC_CFGR_SWS_MSI)
 8002b0c:	e00a      	b.n	8002b24 <HAL_RCC_GetSysClockFreq+0x88>
    }
  }
  else if(sysclk_source == RCC_CFGR_SWS_HSI)
 8002b0e:	693b      	ldr	r3, [r7, #16]
 8002b10:	2b04      	cmp	r3, #4
 8002b12:	d102      	bne.n	8002b1a <HAL_RCC_GetSysClockFreq+0x7e>
  {
    /* HSI used as system clock source */
    sysclockfreq = HSI_VALUE;
 8002b14:	4b25      	ldr	r3, [pc, #148]	@ (8002bac <HAL_RCC_GetSysClockFreq+0x110>)
 8002b16:	61bb      	str	r3, [r7, #24]
 8002b18:	e004      	b.n	8002b24 <HAL_RCC_GetSysClockFreq+0x88>
  }
  else if(sysclk_source == RCC_CFGR_SWS_HSE)
 8002b1a:	693b      	ldr	r3, [r7, #16]
 8002b1c:	2b08      	cmp	r3, #8
 8002b1e:	d101      	bne.n	8002b24 <HAL_RCC_GetSysClockFreq+0x88>
  {
    /* HSE used as system clock source */
    sysclockfreq = HSE_VALUE;
 8002b20:	4b23      	ldr	r3, [pc, #140]	@ (8002bb0 <HAL_RCC_GetSysClockFreq+0x114>)
 8002b22:	61bb      	str	r3, [r7, #24]
  else
  {
    /* unexpected case: sysclockfreq at 0 */
  }

  if(sysclk_source == RCC_CFGR_SWS_PLL)
 8002b24:	693b      	ldr	r3, [r7, #16]
 8002b26:	2b0c      	cmp	r3, #12
 8002b28:	d134      	bne.n	8002b94 <HAL_RCC_GetSysClockFreq+0xf8>
    /* PLL used as system clock  source */

    /* PLL_VCO = (HSE_VALUE or HSI_VALUE or MSI_VALUE) * PLLN / PLLM
    SYSCLK = PLL_VCO / PLLR
    */
    pllsource = READ_BIT(RCC->PLLCFGR, RCC_PLLCFGR_PLLSRC);
 8002b2a:	4b1e      	ldr	r3, [pc, #120]	@ (8002ba4 <HAL_RCC_GetSysClockFreq+0x108>)
 8002b2c:	68db      	ldr	r3, [r3, #12]
 8002b2e:	f003 0303 	and.w	r3, r3, #3
 8002b32:	60bb      	str	r3, [r7, #8]

    switch (pllsource)
 8002b34:	68bb      	ldr	r3, [r7, #8]
 8002b36:	2b02      	cmp	r3, #2
 8002b38:	d003      	beq.n	8002b42 <HAL_RCC_GetSysClockFreq+0xa6>
 8002b3a:	68bb      	ldr	r3, [r7, #8]
 8002b3c:	2b03      	cmp	r3, #3
 8002b3e:	d003      	beq.n	8002b48 <HAL_RCC_GetSysClockFreq+0xac>
 8002b40:	e005      	b.n	8002b4e <HAL_RCC_GetSysClockFreq+0xb2>
    {
    case RCC_PLLSOURCE_HSI:  /* HSI used as PLL clock source */
      pllvco = HSI_VALUE;
 8002b42:	4b1a      	ldr	r3, [pc, #104]	@ (8002bac <HAL_RCC_GetSysClockFreq+0x110>)
 8002b44:	617b      	str	r3, [r7, #20]
      break;
 8002b46:	e005      	b.n	8002b54 <HAL_RCC_GetSysClockFreq+0xb8>

    case RCC_PLLSOURCE_HSE:  /* HSE used as PLL clock source */
      pllvco = HSE_VALUE;
 8002b48:	4b19      	ldr	r3, [pc, #100]	@ (8002bb0 <HAL_RCC_GetSysClockFreq+0x114>)
 8002b4a:	617b      	str	r3, [r7, #20]
      break;
 8002b4c:	e002      	b.n	8002b54 <HAL_RCC_GetSysClockFreq+0xb8>

    case RCC_PLLSOURCE_MSI:  /* MSI used as PLL clock source */
    default:
      pllvco = msirange;
 8002b4e:	69fb      	ldr	r3, [r7, #28]
 8002b50:	617b      	str	r3, [r7, #20]
      break;
 8002b52:	bf00      	nop
    }
    pllm = (READ_BIT(RCC->PLLCFGR, RCC_PLLCFGR_PLLM) >> RCC_PLLCFGR_PLLM_Pos) + 1U ;
 8002b54:	4b13      	ldr	r3, [pc, #76]	@ (8002ba4 <HAL_RCC_GetSysClockFreq+0x108>)
 8002b56:	68db      	ldr	r3, [r3, #12]
 8002b58:	091b      	lsrs	r3, r3, #4
 8002b5a:	f003 030f 	and.w	r3, r3, #15
 8002b5e:	3301      	adds	r3, #1
 8002b60:	607b      	str	r3, [r7, #4]
    pllvco = (pllvco * (READ_BIT(RCC->PLLCFGR, RCC_PLLCFGR_PLLN) >> RCC_PLLCFGR_PLLN_Pos)) / pllm;
 8002b62:	4b10      	ldr	r3, [pc, #64]	@ (8002ba4 <HAL_RCC_GetSysClockFreq+0x108>)
 8002b64:	68db      	ldr	r3, [r3, #12]
 8002b66:	0a1b      	lsrs	r3, r3, #8
 8002b68:	f003 037f 	and.w	r3, r3, #127	@ 0x7f
 8002b6c:	697a      	ldr	r2, [r7, #20]
 8002b6e:	fb03 f202 	mul.w	r2, r3, r2
 8002b72:	687b      	ldr	r3, [r7, #4]
 8002b74:	fbb2 f3f3 	udiv	r3, r2, r3
 8002b78:	617b      	str	r3, [r7, #20]
    pllr = ((READ_BIT(RCC->PLLCFGR, RCC_PLLCFGR_PLLR) >> RCC_PLLCFGR_PLLR_Pos) + 1U ) * 2U;
 8002b7a:	4b0a      	ldr	r3, [pc, #40]	@ (8002ba4 <HAL_RCC_GetSysClockFreq+0x108>)
 8002b7c:	68db      	ldr	r3, [r3, #12]
 8002b7e:	0e5b      	lsrs	r3, r3, #25
 8002b80:	f003 0303 	and.w	r3, r3, #3
 8002b84:	3301      	adds	r3, #1
 8002b86:	005b      	lsls	r3, r3, #1
 8002b88:	603b      	str	r3, [r7, #0]
    sysclockfreq = pllvco / pllr;
 8002b8a:	697a      	ldr	r2, [r7, #20]
 8002b8c:	683b      	ldr	r3, [r7, #0]
 8002b8e:	fbb2 f3f3 	udiv	r3, r2, r3
 8002b92:	61bb      	str	r3, [r7, #24]
  }

  return sysclockfreq;
 8002b94:	69bb      	ldr	r3, [r7, #24]
}
 8002b96:	4618      	mov	r0, r3
 8002b98:	3724      	adds	r7, #36	@ 0x24
 8002b9a:	46bd      	mov	sp, r7
 8002b9c:	f85d 7b04 	ldr.w	r7, [sp], #4
 8002ba0:	4770      	bx	lr
 8002ba2:	bf00      	nop
 8002ba4:	40021000 	.word	0x40021000
 8002ba8:	080037e4 	.word	0x080037e4
 8002bac:	00f42400 	.word	0x00f42400
 8002bb0:	007a1200 	.word	0x007a1200

08002bb4 <RCC_SetFlashLatencyFromMSIRange>:
            voltage range.
  * @param  msirange  MSI range value from RCC_MSIRANGE_0 to RCC_MSIRANGE_11
  * @retval HAL status
  */
static HAL_StatusTypeDef RCC_SetFlashLatencyFromMSIRange(uint32_t msirange)
{
 8002bb4:	b580      	push	{r7, lr}
 8002bb6:	b086      	sub	sp, #24
 8002bb8:	af00      	add	r7, sp, #0
 8002bba:	6078      	str	r0, [r7, #4]
  uint32_t vos;
  uint32_t latency = FLASH_LATENCY_0;  /* default value 0WS */
 8002bbc:	2300      	movs	r3, #0
 8002bbe:	613b      	str	r3, [r7, #16]

  if(__HAL_RCC_PWR_IS_CLK_ENABLED())
 8002bc0:	4b27      	ldr	r3, [pc, #156]	@ (8002c60 <RCC_SetFlashLatencyFromMSIRange+0xac>)
 8002bc2:	6d9b      	ldr	r3, [r3, #88]	@ 0x58
 8002bc4:	f003 5380 	and.w	r3, r3, #268435456	@ 0x10000000
 8002bc8:	2b00      	cmp	r3, #0
 8002bca:	d003      	beq.n	8002bd4 <RCC_SetFlashLatencyFromMSIRange+0x20>
  {
    vos = HAL_PWREx_GetVoltageRange();
 8002bcc:	f7ff f94e 	bl	8001e6c <HAL_PWREx_GetVoltageRange>
 8002bd0:	6178      	str	r0, [r7, #20]
 8002bd2:	e014      	b.n	8002bfe <RCC_SetFlashLatencyFromMSIRange+0x4a>
  }
  else
  {
    __HAL_RCC_PWR_CLK_ENABLE();
 8002bd4:	4b22      	ldr	r3, [pc, #136]	@ (8002c60 <RCC_SetFlashLatencyFromMSIRange+0xac>)
 8002bd6:	6d9b      	ldr	r3, [r3, #88]	@ 0x58
 8002bd8:	4a21      	ldr	r2, [pc, #132]	@ (8002c60 <RCC_SetFlashLatencyFromMSIRange+0xac>)
 8002bda:	f043 5380 	orr.w	r3, r3, #268435456	@ 0x10000000
 8002bde:	6593      	str	r3, [r2, #88]	@ 0x58
 8002be0:	4b1f      	ldr	r3, [pc, #124]	@ (8002c60 <RCC_SetFlashLatencyFromMSIRange+0xac>)
 8002be2:	6d9b      	ldr	r3, [r3, #88]	@ 0x58
 8002be4:	f003 5380 	and.w	r3, r3, #268435456	@ 0x10000000
 8002be8:	60fb      	str	r3, [r7, #12]
 8002bea:	68fb      	ldr	r3, [r7, #12]
    vos = HAL_PWREx_GetVoltageRange();
 8002bec:	f7ff f93e 	bl	8001e6c <HAL_PWREx_GetVoltageRange>
 8002bf0:	6178      	str	r0, [r7, #20]
    __HAL_RCC_PWR_CLK_DISABLE();
 8002bf2:	4b1b      	ldr	r3, [pc, #108]	@ (8002c60 <RCC_SetFlashLatencyFromMSIRange+0xac>)
 8002bf4:	6d9b      	ldr	r3, [r3, #88]	@ 0x58
 8002bf6:	4a1a      	ldr	r2, [pc, #104]	@ (8002c60 <RCC_SetFlashLatencyFromMSIRange+0xac>)
 8002bf8:	f023 5380 	bic.w	r3, r3, #268435456	@ 0x10000000
 8002bfc:	6593      	str	r3, [r2, #88]	@ 0x58
  }

  if(vos == PWR_REGULATOR_VOLTAGE_SCALE1)
 8002bfe:	697b      	ldr	r3, [r7, #20]
 8002c00:	f5b3 7f00 	cmp.w	r3, #512	@ 0x200
 8002c04:	d10b      	bne.n	8002c1e <RCC_SetFlashLatencyFromMSIRange+0x6a>
  {
    if(msirange > RCC_MSIRANGE_8)
 8002c06:	687b      	ldr	r3, [r7, #4]
 8002c08:	2b80      	cmp	r3, #128	@ 0x80
 8002c0a:	d913      	bls.n	8002c34 <RCC_SetFlashLatencyFromMSIRange+0x80>
    {
      /* MSI > 16Mhz */
      if(msirange > RCC_MSIRANGE_10)
 8002c0c:	687b      	ldr	r3, [r7, #4]
 8002c0e:	2ba0      	cmp	r3, #160	@ 0xa0
 8002c10:	d902      	bls.n	8002c18 <RCC_SetFlashLatencyFromMSIRange+0x64>
      {
        /* MSI 48Mhz */
        latency = FLASH_LATENCY_2; /* 2WS */
 8002c12:	2302      	movs	r3, #2
 8002c14:	613b      	str	r3, [r7, #16]
 8002c16:	e00d      	b.n	8002c34 <RCC_SetFlashLatencyFromMSIRange+0x80>
      }
      else
      {
        /* MSI 24Mhz or 32Mhz */
        latency = FLASH_LATENCY_1; /* 1WS */
 8002c18:	2301      	movs	r3, #1
 8002c1a:	613b      	str	r3, [r7, #16]
 8002c1c:	e00a      	b.n	8002c34 <RCC_SetFlashLatencyFromMSIRange+0x80>
  }
  else
  {
#if defined(STM32L4P5xx) || defined(STM32L4Q5xx) || \
    defined(STM32L4R5xx) || defined(STM32L4R7xx) || defined(STM32L4R9xx) || defined(STM32L4S5xx) || defined(STM32L4S7xx) || defined(STM32L4S9xx)
    if(msirange >= RCC_MSIRANGE_8)
 8002c1e:	687b      	ldr	r3, [r7, #4]
 8002c20:	2b7f      	cmp	r3, #127	@ 0x7f
 8002c22:	d902      	bls.n	8002c2a <RCC_SetFlashLatencyFromMSIRange+0x76>
    {
      /* MSI >= 16Mhz */
      latency = FLASH_LATENCY_2; /* 2WS */
 8002c24:	2302      	movs	r3, #2
 8002c26:	613b      	str	r3, [r7, #16]
 8002c28:	e004      	b.n	8002c34 <RCC_SetFlashLatencyFromMSIRange+0x80>
    }
    else
    {
      if(msirange == RCC_MSIRANGE_7)
 8002c2a:	687b      	ldr	r3, [r7, #4]
 8002c2c:	2b70      	cmp	r3, #112	@ 0x70
 8002c2e:	d101      	bne.n	8002c34 <RCC_SetFlashLatencyFromMSIRange+0x80>
      {
        /* MSI 8Mhz */
        latency = FLASH_LATENCY_1; /* 1WS */
 8002c30:	2301      	movs	r3, #1
 8002c32:	613b      	str	r3, [r7, #16]
      }
    }
#endif
  }

  __HAL_FLASH_SET_LATENCY(latency);
 8002c34:	4b0b      	ldr	r3, [pc, #44]	@ (8002c64 <RCC_SetFlashLatencyFromMSIRange+0xb0>)
 8002c36:	681b      	ldr	r3, [r3, #0]
 8002c38:	f023 020f 	bic.w	r2, r3, #15
 8002c3c:	4909      	ldr	r1, [pc, #36]	@ (8002c64 <RCC_SetFlashLatencyFromMSIRange+0xb0>)
 8002c3e:	693b      	ldr	r3, [r7, #16]
 8002c40:	4313      	orrs	r3, r2
 8002c42:	600b      	str	r3, [r1, #0]

  /* Check that the new number of wait states is taken into account to access the Flash
     memory by reading the FLASH_ACR register */
  if(__HAL_FLASH_GET_LATENCY() != latency)
 8002c44:	4b07      	ldr	r3, [pc, #28]	@ (8002c64 <RCC_SetFlashLatencyFromMSIRange+0xb0>)
 8002c46:	681b      	ldr	r3, [r3, #0]
 8002c48:	f003 030f 	and.w	r3, r3, #15
 8002c4c:	693a      	ldr	r2, [r7, #16]
 8002c4e:	429a      	cmp	r2, r3
 8002c50:	d001      	beq.n	8002c56 <RCC_SetFlashLatencyFromMSIRange+0xa2>
  {
    return HAL_ERROR;
 8002c52:	2301      	movs	r3, #1
 8002c54:	e000      	b.n	8002c58 <RCC_SetFlashLatencyFromMSIRange+0xa4>
  }

  return HAL_OK;
 8002c56:	2300      	movs	r3, #0
}
 8002c58:	4618      	mov	r0, r3
 8002c5a:	3718      	adds	r7, #24
 8002c5c:	46bd      	mov	sp, r7
 8002c5e:	bd80      	pop	{r7, pc}
 8002c60:	40021000 	.word	0x40021000
 8002c64:	40022000 	.word	0x40022000

08002c68 <RCC_GetSysClockFreqFromPLLSource>:
/**
  * @brief  Compute SYSCLK frequency based on PLL SYSCLK source.
  * @retval SYSCLK frequency
  */
static uint32_t RCC_GetSysClockFreqFromPLLSource(void)
{
 8002c68:	b480      	push	{r7}
 8002c6a:	b087      	sub	sp, #28
 8002c6c:	af00      	add	r7, sp, #0
  uint32_t msirange, pllvco, pllsource, pllr, pllm, sysclockfreq;  /* no init needed */

  /* PLL_VCO = (HSE_VALUE or HSI_VALUE or MSI_VALUE) * PLLN / PLLM
     SYSCLK = PLL_VCO / PLLR
   */
  pllsource = READ_BIT(RCC->PLLCFGR, RCC_PLLCFGR_PLLSRC);
 8002c6e:	4b2d      	ldr	r3, [pc, #180]	@ (8002d24 <RCC_GetSysClockFreqFromPLLSource+0xbc>)
 8002c70:	68db      	ldr	r3, [r3, #12]
 8002c72:	f003 0303 	and.w	r3, r3, #3
 8002c76:	60fb      	str	r3, [r7, #12]

  switch (pllsource)
 8002c78:	68fb      	ldr	r3, [r7, #12]
 8002c7a:	2b03      	cmp	r3, #3
 8002c7c:	d00b      	beq.n	8002c96 <RCC_GetSysClockFreqFromPLLSource+0x2e>
 8002c7e:	68fb      	ldr	r3, [r7, #12]
 8002c80:	2b03      	cmp	r3, #3
 8002c82:	d825      	bhi.n	8002cd0 <RCC_GetSysClockFreqFromPLLSource+0x68>
 8002c84:	68fb      	ldr	r3, [r7, #12]
 8002c86:	2b01      	cmp	r3, #1
 8002c88:	d008      	beq.n	8002c9c <RCC_GetSysClockFreqFromPLLSource+0x34>
 8002c8a:	68fb      	ldr	r3, [r7, #12]
 8002c8c:	2b02      	cmp	r3, #2
 8002c8e:	d11f      	bne.n	8002cd0 <RCC_GetSysClockFreqFromPLLSource+0x68>
  {
  case RCC_PLLSOURCE_HSI:  /* HSI used as PLL clock source */
    pllvco = HSI_VALUE;
 8002c90:	4b25      	ldr	r3, [pc, #148]	@ (8002d28 <RCC_GetSysClockFreqFromPLLSource+0xc0>)
 8002c92:	613b      	str	r3, [r7, #16]
    break;
 8002c94:	e01f      	b.n	8002cd6 <RCC_GetSysClockFreqFromPLLSource+0x6e>

  case RCC_PLLSOURCE_HSE:  /* HSE used as PLL clock source */
    pllvco = HSE_VALUE;
 8002c96:	4b25      	ldr	r3, [pc, #148]	@ (8002d2c <RCC_GetSysClockFreqFromPLLSource+0xc4>)
 8002c98:	613b      	str	r3, [r7, #16]
    break;
 8002c9a:	e01c      	b.n	8002cd6 <RCC_GetSysClockFreqFromPLLSource+0x6e>

  case RCC_PLLSOURCE_MSI:  /* MSI used as PLL clock source */
    /* Get MSI range source */
    if(READ_BIT(RCC->CR, RCC_CR_MSIRGSEL) == 0U)
 8002c9c:	4b21      	ldr	r3, [pc, #132]	@ (8002d24 <RCC_GetSysClockFreqFromPLLSource+0xbc>)
 8002c9e:	681b      	ldr	r3, [r3, #0]
 8002ca0:	f003 0308 	and.w	r3, r3, #8
 8002ca4:	2b00      	cmp	r3, #0
 8002ca6:	d107      	bne.n	8002cb8 <RCC_GetSysClockFreqFromPLLSource+0x50>
    { /* MSISRANGE from RCC_CSR applies */
      msirange = READ_BIT(RCC->CSR, RCC_CSR_MSISRANGE) >> RCC_CSR_MSISRANGE_Pos;
 8002ca8:	4b1e      	ldr	r3, [pc, #120]	@ (8002d24 <RCC_GetSysClockFreqFromPLLSource+0xbc>)
 8002caa:	f8d3 3094 	ldr.w	r3, [r3, #148]	@ 0x94
 8002cae:	0a1b      	lsrs	r3, r3, #8
 8002cb0:	f003 030f 	and.w	r3, r3, #15
 8002cb4:	617b      	str	r3, [r7, #20]
 8002cb6:	e005      	b.n	8002cc4 <RCC_GetSysClockFreqFromPLLSource+0x5c>
    }
    else
    { /* MSIRANGE from RCC_CR applies */
      msirange = READ_BIT(RCC->CR, RCC_CR_MSIRANGE) >> RCC_CR_MSIRANGE_Pos;
 8002cb8:	4b1a      	ldr	r3, [pc, #104]	@ (8002d24 <RCC_GetSysClockFreqFromPLLSource+0xbc>)
 8002cba:	681b      	ldr	r3, [r3, #0]
 8002cbc:	091b      	lsrs	r3, r3, #4
 8002cbe:	f003 030f 	and.w	r3, r3, #15
 8002cc2:	617b      	str	r3, [r7, #20]
    }
    /*MSI frequency range in HZ*/
    pllvco = MSIRangeTable[msirange];
 8002cc4:	4a1a      	ldr	r2, [pc, #104]	@ (8002d30 <RCC_GetSysClockFreqFromPLLSource+0xc8>)
 8002cc6:	697b      	ldr	r3, [r7, #20]
 8002cc8:	f852 3023 	ldr.w	r3, [r2, r3, lsl #2]
 8002ccc:	613b      	str	r3, [r7, #16]
    break;
 8002cce:	e002      	b.n	8002cd6 <RCC_GetSysClockFreqFromPLLSource+0x6e>
  default:
    /* unexpected */
    pllvco = 0;
 8002cd0:	2300      	movs	r3, #0
 8002cd2:	613b      	str	r3, [r7, #16]
    break;
 8002cd4:	bf00      	nop
  }
  pllm = (READ_BIT(RCC->PLLCFGR, RCC_PLLCFGR_PLLM) >> RCC_PLLCFGR_PLLM_Pos) + 1U ;
 8002cd6:	4b13      	ldr	r3, [pc, #76]	@ (8002d24 <RCC_GetSysClockFreqFromPLLSource+0xbc>)
 8002cd8:	68db      	ldr	r3, [r3, #12]
 8002cda:	091b      	lsrs	r3, r3, #4
 8002cdc:	f003 030f 	and.w	r3, r3, #15
 8002ce0:	3301      	adds	r3, #1
 8002ce2:	60bb      	str	r3, [r7, #8]
  pllvco = (pllvco * (READ_BIT(RCC->PLLCFGR, RCC_PLLCFGR_PLLN) >> RCC_PLLCFGR_PLLN_Pos)) / pllm;
 8002ce4:	4b0f      	ldr	r3, [pc, #60]	@ (8002d24 <RCC_GetSysClockFreqFromPLLSource+0xbc>)
 8002ce6:	68db      	ldr	r3, [r3, #12]
 8002ce8:	0a1b      	lsrs	r3, r3, #8
 8002cea:	f003 037f 	and.w	r3, r3, #127	@ 0x7f
 8002cee:	693a      	ldr	r2, [r7, #16]
 8002cf0:	fb03 f202 	mul.w	r2, r3, r2
 8002cf4:	68bb      	ldr	r3, [r7, #8]
 8002cf6:	fbb2 f3f3 	udiv	r3, r2, r3
 8002cfa:	613b      	str	r3, [r7, #16]
  pllr = ((READ_BIT(RCC->PLLCFGR, RCC_PLLCFGR_PLLR) >> RCC_PLLCFGR_PLLR_Pos) + 1U ) * 2U;
 8002cfc:	4b09      	ldr	r3, [pc, #36]	@ (8002d24 <RCC_GetSysClockFreqFromPLLSource+0xbc>)
 8002cfe:	68db      	ldr	r3, [r3, #12]
 8002d00:	0e5b      	lsrs	r3, r3, #25
 8002d02:	f003 0303 	and.w	r3, r3, #3
 8002d06:	3301      	adds	r3, #1
 8002d08:	005b      	lsls	r3, r3, #1
 8002d0a:	607b      	str	r3, [r7, #4]
  sysclockfreq = pllvco / pllr;
 8002d0c:	693a      	ldr	r2, [r7, #16]
 8002d0e:	687b      	ldr	r3, [r7, #4]
 8002d10:	fbb2 f3f3 	udiv	r3, r2, r3
 8002d14:	603b      	str	r3, [r7, #0]

  return sysclockfreq;
 8002d16:	683b      	ldr	r3, [r7, #0]
}
 8002d18:	4618      	mov	r0, r3
 8002d1a:	371c      	adds	r7, #28
 8002d1c:	46bd      	mov	sp, r7
 8002d1e:	f85d 7b04 	ldr.w	r7, [sp], #4
 8002d22:	4770      	bx	lr
 8002d24:	40021000 	.word	0x40021000
 8002d28:	00f42400 	.word	0x00f42400
 8002d2c:	007a1200 	.word	0x007a1200
 8002d30:	080037e4 	.word	0x080037e4

08002d34 <HAL_RCCEx_PeriphCLKConfig>:
  *         the RTC clock source: in this case the access to Backup domain is enabled.
  *
  * @retval HAL status
  */
HAL_StatusTypeDef HAL_RCCEx_PeriphCLKConfig(RCC_PeriphCLKInitTypeDef  *PeriphClkInit)
{
 8002d34:	b580      	push	{r7, lr}
 8002d36:	b086      	sub	sp, #24
 8002d38:	af00      	add	r7, sp, #0
 8002d3a:	6078      	str	r0, [r7, #4]
  uint32_t tmpregister, tickstart;     /* no init needed */
  HAL_StatusTypeDef ret = HAL_OK;      /* Intermediate status */
 8002d3c:	2300      	movs	r3, #0
 8002d3e:	74fb      	strb	r3, [r7, #19]
  HAL_StatusTypeDef status = HAL_OK;   /* Final status */
 8002d40:	2300      	movs	r3, #0
 8002d42:	74bb      	strb	r3, [r7, #18]
  assert_param(IS_RCC_PERIPHCLOCK(PeriphClkInit->PeriphClockSelection));

#if defined(SAI1)

  /*-------------------------- SAI1 clock source configuration ---------------------*/
  if((((PeriphClkInit->PeriphClockSelection) & RCC_PERIPHCLK_SAI1) == RCC_PERIPHCLK_SAI1))
 8002d44:	687b      	ldr	r3, [r7, #4]
 8002d46:	681b      	ldr	r3, [r3, #0]
 8002d48:	f403 6300 	and.w	r3, r3, #2048	@ 0x800
 8002d4c:	2b00      	cmp	r3, #0
 8002d4e:	d040      	beq.n	8002dd2 <HAL_RCCEx_PeriphCLKConfig+0x9e>
  {
    /* Check the parameters */
    assert_param(IS_RCC_SAI1CLK(PeriphClkInit->Sai1ClockSelection));

    switch(PeriphClkInit->Sai1ClockSelection)
 8002d50:	687b      	ldr	r3, [r7, #4]
 8002d52:	6edb      	ldr	r3, [r3, #108]	@ 0x6c
 8002d54:	2b80      	cmp	r3, #128	@ 0x80
 8002d56:	d02a      	beq.n	8002dae <HAL_RCCEx_PeriphCLKConfig+0x7a>
 8002d58:	2b80      	cmp	r3, #128	@ 0x80
 8002d5a:	d825      	bhi.n	8002da8 <HAL_RCCEx_PeriphCLKConfig+0x74>
 8002d5c:	2b60      	cmp	r3, #96	@ 0x60
 8002d5e:	d026      	beq.n	8002dae <HAL_RCCEx_PeriphCLKConfig+0x7a>
 8002d60:	2b60      	cmp	r3, #96	@ 0x60
 8002d62:	d821      	bhi.n	8002da8 <HAL_RCCEx_PeriphCLKConfig+0x74>
 8002d64:	2b40      	cmp	r3, #64	@ 0x40
 8002d66:	d006      	beq.n	8002d76 <HAL_RCCEx_PeriphCLKConfig+0x42>
 8002d68:	2b40      	cmp	r3, #64	@ 0x40
 8002d6a:	d81d      	bhi.n	8002da8 <HAL_RCCEx_PeriphCLKConfig+0x74>
 8002d6c:	2b00      	cmp	r3, #0
 8002d6e:	d009      	beq.n	8002d84 <HAL_RCCEx_PeriphCLKConfig+0x50>
 8002d70:	2b20      	cmp	r3, #32
 8002d72:	d010      	beq.n	8002d96 <HAL_RCCEx_PeriphCLKConfig+0x62>
 8002d74:	e018      	b.n	8002da8 <HAL_RCCEx_PeriphCLKConfig+0x74>
    {
    case RCC_SAI1CLKSOURCE_PLL:      /* PLL is used as clock source for SAI1*/
      /* Enable SAI Clock output generated from System PLL . */
#if defined(RCC_PLLSAI2_SUPPORT)
      __HAL_RCC_PLLCLKOUT_ENABLE(RCC_PLL_SAI3CLK);
 8002d76:	4b89      	ldr	r3, [pc, #548]	@ (8002f9c <HAL_RCCEx_PeriphCLKConfig+0x268>)
 8002d78:	68db      	ldr	r3, [r3, #12]
 8002d7a:	4a88      	ldr	r2, [pc, #544]	@ (8002f9c <HAL_RCCEx_PeriphCLKConfig+0x268>)
 8002d7c:	f443 3380 	orr.w	r3, r3, #65536	@ 0x10000
 8002d80:	60d3      	str	r3, [r2, #12]
#else
      __HAL_RCC_PLLCLKOUT_ENABLE(RCC_PLL_SAI2CLK);
#endif /* RCC_PLLSAI2_SUPPORT */
      /* SAI1 clock source config set later after clock selection check */
      break;
 8002d82:	e015      	b.n	8002db0 <HAL_RCCEx_PeriphCLKConfig+0x7c>

    case RCC_SAI1CLKSOURCE_PLLSAI1:  /* PLLSAI1 is used as clock source for SAI1*/
      /* PLLSAI1 input clock, parameters M, N & P configuration and clock output (PLLSAI1ClockOut) */
      ret = RCCEx_PLLSAI1_Config(&(PeriphClkInit->PLLSAI1), DIVIDER_P_UPDATE);
 8002d84:	687b      	ldr	r3, [r7, #4]
 8002d86:	3304      	adds	r3, #4
 8002d88:	2100      	movs	r1, #0
 8002d8a:	4618      	mov	r0, r3
 8002d8c:	f000 fb02 	bl	8003394 <RCCEx_PLLSAI1_Config>
 8002d90:	4603      	mov	r3, r0
 8002d92:	74fb      	strb	r3, [r7, #19]
      /* SAI1 clock source config set later after clock selection check */
      break;
 8002d94:	e00c      	b.n	8002db0 <HAL_RCCEx_PeriphCLKConfig+0x7c>

#if defined(RCC_PLLSAI2_SUPPORT)

    case RCC_SAI1CLKSOURCE_PLLSAI2:  /* PLLSAI2 is used as clock source for SAI1*/
      /* PLLSAI2 input clock, parameters M, N & P configuration clock output (PLLSAI2ClockOut) */
      ret = RCCEx_PLLSAI2_Config(&(PeriphClkInit->PLLSAI2), DIVIDER_P_UPDATE);
 8002d96:	687b      	ldr	r3, [r7, #4]
 8002d98:	3320      	adds	r3, #32
 8002d9a:	2100      	movs	r1, #0
 8002d9c:	4618      	mov	r0, r3
 8002d9e:	f000 fbed 	bl	800357c <RCCEx_PLLSAI2_Config>
 8002da2:	4603      	mov	r3, r0
 8002da4:	74fb      	strb	r3, [r7, #19]
      /* SAI1 clock source config set later after clock selection check */
      break;
 8002da6:	e003      	b.n	8002db0 <HAL_RCCEx_PeriphCLKConfig+0x7c>
#endif /* STM32L4P5xx || STM32L4Q5xx || STM32L4R5xx || STM32L4R7xx || STM32L4R9xx || STM32L4S5xx || STM32L4S7xx || STM32L4S9xx */
      /* SAI1 clock source config set later after clock selection check */
      break;

    default:
      ret = HAL_ERROR;
 8002da8:	2301      	movs	r3, #1
 8002daa:	74fb      	strb	r3, [r7, #19]
      break;
 8002dac:	e000      	b.n	8002db0 <HAL_RCCEx_PeriphCLKConfig+0x7c>
      break;
 8002dae:	bf00      	nop
    }

    if(ret == HAL_OK)
 8002db0:	7cfb      	ldrb	r3, [r7, #19]
 8002db2:	2b00      	cmp	r3, #0
 8002db4:	d10b      	bne.n	8002dce <HAL_RCCEx_PeriphCLKConfig+0x9a>
    {
      /* Set the source of SAI1 clock*/
      __HAL_RCC_SAI1_CONFIG(PeriphClkInit->Sai1ClockSelection);
 8002db6:	4b79      	ldr	r3, [pc, #484]	@ (8002f9c <HAL_RCCEx_PeriphCLKConfig+0x268>)
 8002db8:	f8d3 309c 	ldr.w	r3, [r3, #156]	@ 0x9c
 8002dbc:	f023 02e0 	bic.w	r2, r3, #224	@ 0xe0
 8002dc0:	687b      	ldr	r3, [r7, #4]
 8002dc2:	6edb      	ldr	r3, [r3, #108]	@ 0x6c
 8002dc4:	4975      	ldr	r1, [pc, #468]	@ (8002f9c <HAL_RCCEx_PeriphCLKConfig+0x268>)
 8002dc6:	4313      	orrs	r3, r2
 8002dc8:	f8c1 309c 	str.w	r3, [r1, #156]	@ 0x9c
 8002dcc:	e001      	b.n	8002dd2 <HAL_RCCEx_PeriphCLKConfig+0x9e>
    }
    else
    {
      /* set overall return value */
      status = ret;
 8002dce:	7cfb      	ldrb	r3, [r7, #19]
 8002dd0:	74bb      	strb	r3, [r7, #18]
#endif /* SAI1 */

#if defined(SAI2)

  /*-------------------------- SAI2 clock source configuration ---------------------*/
  if((((PeriphClkInit->PeriphClockSelection) & RCC_PERIPHCLK_SAI2) == RCC_PERIPHCLK_SAI2))
 8002dd2:	687b      	ldr	r3, [r7, #4]
 8002dd4:	681b      	ldr	r3, [r3, #0]
 8002dd6:	f403 5380 	and.w	r3, r3, #4096	@ 0x1000
 8002dda:	2b00      	cmp	r3, #0
 8002ddc:	d047      	beq.n	8002e6e <HAL_RCCEx_PeriphCLKConfig+0x13a>
  {
    /* Check the parameters */
    assert_param(IS_RCC_SAI2CLK(PeriphClkInit->Sai2ClockSelection));

    switch(PeriphClkInit->Sai2ClockSelection)
 8002dde:	687b      	ldr	r3, [r7, #4]
 8002de0:	6f1b      	ldr	r3, [r3, #112]	@ 0x70
 8002de2:	f5b3 6f80 	cmp.w	r3, #1024	@ 0x400
 8002de6:	d030      	beq.n	8002e4a <HAL_RCCEx_PeriphCLKConfig+0x116>
 8002de8:	f5b3 6f80 	cmp.w	r3, #1024	@ 0x400
 8002dec:	d82a      	bhi.n	8002e44 <HAL_RCCEx_PeriphCLKConfig+0x110>
 8002dee:	f5b3 7f40 	cmp.w	r3, #768	@ 0x300
 8002df2:	d02a      	beq.n	8002e4a <HAL_RCCEx_PeriphCLKConfig+0x116>
 8002df4:	f5b3 7f40 	cmp.w	r3, #768	@ 0x300
 8002df8:	d824      	bhi.n	8002e44 <HAL_RCCEx_PeriphCLKConfig+0x110>
 8002dfa:	f5b3 7f00 	cmp.w	r3, #512	@ 0x200
 8002dfe:	d008      	beq.n	8002e12 <HAL_RCCEx_PeriphCLKConfig+0xde>
 8002e00:	f5b3 7f00 	cmp.w	r3, #512	@ 0x200
 8002e04:	d81e      	bhi.n	8002e44 <HAL_RCCEx_PeriphCLKConfig+0x110>
 8002e06:	2b00      	cmp	r3, #0
 8002e08:	d00a      	beq.n	8002e20 <HAL_RCCEx_PeriphCLKConfig+0xec>
 8002e0a:	f5b3 7f80 	cmp.w	r3, #256	@ 0x100
 8002e0e:	d010      	beq.n	8002e32 <HAL_RCCEx_PeriphCLKConfig+0xfe>
 8002e10:	e018      	b.n	8002e44 <HAL_RCCEx_PeriphCLKConfig+0x110>
    {
    case RCC_SAI2CLKSOURCE_PLL:      /* PLL is used as clock source for SAI2*/
      /* Enable SAI Clock output generated from System PLL . */
      __HAL_RCC_PLLCLKOUT_ENABLE(RCC_PLL_SAI3CLK);
 8002e12:	4b62      	ldr	r3, [pc, #392]	@ (8002f9c <HAL_RCCEx_PeriphCLKConfig+0x268>)
 8002e14:	68db      	ldr	r3, [r3, #12]
 8002e16:	4a61      	ldr	r2, [pc, #388]	@ (8002f9c <HAL_RCCEx_PeriphCLKConfig+0x268>)
 8002e18:	f443 3380 	orr.w	r3, r3, #65536	@ 0x10000
 8002e1c:	60d3      	str	r3, [r2, #12]
      /* SAI2 clock source config set later after clock selection check */
      break;
 8002e1e:	e015      	b.n	8002e4c <HAL_RCCEx_PeriphCLKConfig+0x118>

    case RCC_SAI2CLKSOURCE_PLLSAI1: /* PLLSAI1 is used as clock source for SAI2*/
      /* PLLSAI1 input clock, parameters M, N & P configuration and clock output (PLLSAI1ClockOut) */
      ret = RCCEx_PLLSAI1_Config(&(PeriphClkInit->PLLSAI1), DIVIDER_P_UPDATE);
 8002e20:	687b      	ldr	r3, [r7, #4]
 8002e22:	3304      	adds	r3, #4
 8002e24:	2100      	movs	r1, #0
 8002e26:	4618      	mov	r0, r3
 8002e28:	f000 fab4 	bl	8003394 <RCCEx_PLLSAI1_Config>
 8002e2c:	4603      	mov	r3, r0
 8002e2e:	74fb      	strb	r3, [r7, #19]
      /* SAI2 clock source config set later after clock selection check */
      break;
 8002e30:	e00c      	b.n	8002e4c <HAL_RCCEx_PeriphCLKConfig+0x118>

    case RCC_SAI2CLKSOURCE_PLLSAI2:  /* PLLSAI2 is used as clock source for SAI2*/
      /* PLLSAI2 input clock, parameters M, N & P configuration and clock output (PLLSAI2ClockOut) */
      ret = RCCEx_PLLSAI2_Config(&(PeriphClkInit->PLLSAI2), DIVIDER_P_UPDATE);
 8002e32:	687b      	ldr	r3, [r7, #4]
 8002e34:	3320      	adds	r3, #32
 8002e36:	2100      	movs	r1, #0
 8002e38:	4618      	mov	r0, r3
 8002e3a:	f000 fb9f 	bl	800357c <RCCEx_PLLSAI2_Config>
 8002e3e:	4603      	mov	r3, r0
 8002e40:	74fb      	strb	r3, [r7, #19]
      /* SAI2 clock source config set later after clock selection check */
      break;
 8002e42:	e003      	b.n	8002e4c <HAL_RCCEx_PeriphCLKConfig+0x118>
#endif /* STM32L4P5xx || STM32L4Q5xx || STM32L4R5xx || STM32L4R7xx || STM32L4R9xx || STM32L4S5xx || STM32L4S7xx || STM32L4S9xx */
      /* SAI2 clock source config set later after clock selection check */
      break;

    default:
      ret = HAL_ERROR;
 8002e44:	2301      	movs	r3, #1
 8002e46:	74fb      	strb	r3, [r7, #19]
      break;
 8002e48:	e000      	b.n	8002e4c <HAL_RCCEx_PeriphCLKConfig+0x118>
      break;
 8002e4a:	bf00      	nop
    }

    if(ret == HAL_OK)
 8002e4c:	7cfb      	ldrb	r3, [r7, #19]
 8002e4e:	2b00      	cmp	r3, #0
 8002e50:	d10b      	bne.n	8002e6a <HAL_RCCEx_PeriphCLKConfig+0x136>
    {
      /* Set the source of SAI2 clock*/
      __HAL_RCC_SAI2_CONFIG(PeriphClkInit->Sai2ClockSelection);
 8002e52:	4b52      	ldr	r3, [pc, #328]	@ (8002f9c <HAL_RCCEx_PeriphCLKConfig+0x268>)
 8002e54:	f8d3 309c 	ldr.w	r3, [r3, #156]	@ 0x9c
 8002e58:	f423 62e0 	bic.w	r2, r3, #1792	@ 0x700
 8002e5c:	687b      	ldr	r3, [r7, #4]
 8002e5e:	6f1b      	ldr	r3, [r3, #112]	@ 0x70
 8002e60:	494e      	ldr	r1, [pc, #312]	@ (8002f9c <HAL_RCCEx_PeriphCLKConfig+0x268>)
 8002e62:	4313      	orrs	r3, r2
 8002e64:	f8c1 309c 	str.w	r3, [r1, #156]	@ 0x9c
 8002e68:	e001      	b.n	8002e6e <HAL_RCCEx_PeriphCLKConfig+0x13a>
    }
    else
    {
      /* set overall return value */
      status = ret;
 8002e6a:	7cfb      	ldrb	r3, [r7, #19]
 8002e6c:	74bb      	strb	r3, [r7, #18]
    }
  }
#endif /* SAI2 */

  /*-------------------------- RTC clock source configuration ----------------------*/
  if((PeriphClkInit->PeriphClockSelection & RCC_PERIPHCLK_RTC) == RCC_PERIPHCLK_RTC)
 8002e6e:	687b      	ldr	r3, [r7, #4]
 8002e70:	681b      	ldr	r3, [r3, #0]
 8002e72:	f403 3300 	and.w	r3, r3, #131072	@ 0x20000
 8002e76:	2b00      	cmp	r3, #0
 8002e78:	f000 809f 	beq.w	8002fba <HAL_RCCEx_PeriphCLKConfig+0x286>
  {
    FlagStatus       pwrclkchanged = RESET;
 8002e7c:	2300      	movs	r3, #0
 8002e7e:	747b      	strb	r3, [r7, #17]

    /* Check for RTC Parameters used to output RTCCLK */
    assert_param(IS_RCC_RTCCLKSOURCE(PeriphClkInit->RTCClockSelection));

    /* Enable Power Clock */
    if(__HAL_RCC_PWR_IS_CLK_DISABLED() != 0U)
 8002e80:	4b46      	ldr	r3, [pc, #280]	@ (8002f9c <HAL_RCCEx_PeriphCLKConfig+0x268>)
 8002e82:	6d9b      	ldr	r3, [r3, #88]	@ 0x58
 8002e84:	f003 5380 	and.w	r3, r3, #268435456	@ 0x10000000
 8002e88:	2b00      	cmp	r3, #0
 8002e8a:	d101      	bne.n	8002e90 <HAL_RCCEx_PeriphCLKConfig+0x15c>
 8002e8c:	2301      	movs	r3, #1
 8002e8e:	e000      	b.n	8002e92 <HAL_RCCEx_PeriphCLKConfig+0x15e>
 8002e90:	2300      	movs	r3, #0
 8002e92:	2b00      	cmp	r3, #0
 8002e94:	d00d      	beq.n	8002eb2 <HAL_RCCEx_PeriphCLKConfig+0x17e>
    {
      __HAL_RCC_PWR_CLK_ENABLE();
 8002e96:	4b41      	ldr	r3, [pc, #260]	@ (8002f9c <HAL_RCCEx_PeriphCLKConfig+0x268>)
 8002e98:	6d9b      	ldr	r3, [r3, #88]	@ 0x58
 8002e9a:	4a40      	ldr	r2, [pc, #256]	@ (8002f9c <HAL_RCCEx_PeriphCLKConfig+0x268>)
 8002e9c:	f043 5380 	orr.w	r3, r3, #268435456	@ 0x10000000
 8002ea0:	6593      	str	r3, [r2, #88]	@ 0x58
 8002ea2:	4b3e      	ldr	r3, [pc, #248]	@ (8002f9c <HAL_RCCEx_PeriphCLKConfig+0x268>)
 8002ea4:	6d9b      	ldr	r3, [r3, #88]	@ 0x58
 8002ea6:	f003 5380 	and.w	r3, r3, #268435456	@ 0x10000000
 8002eaa:	60bb      	str	r3, [r7, #8]
 8002eac:	68bb      	ldr	r3, [r7, #8]
      pwrclkchanged = SET;
 8002eae:	2301      	movs	r3, #1
 8002eb0:	747b      	strb	r3, [r7, #17]
    }

    /* Enable write access to Backup domain */
    SET_BIT(PWR->CR1, PWR_CR1_DBP);
 8002eb2:	4b3b      	ldr	r3, [pc, #236]	@ (8002fa0 <HAL_RCCEx_PeriphCLKConfig+0x26c>)
 8002eb4:	681b      	ldr	r3, [r3, #0]
 8002eb6:	4a3a      	ldr	r2, [pc, #232]	@ (8002fa0 <HAL_RCCEx_PeriphCLKConfig+0x26c>)
 8002eb8:	f443 7380 	orr.w	r3, r3, #256	@ 0x100
 8002ebc:	6013      	str	r3, [r2, #0]

    /* Wait for Backup domain Write protection disable */
    tickstart = HAL_GetTick();
 8002ebe:	f7fd fc53 	bl	8000768 <HAL_GetTick>
 8002ec2:	60f8      	str	r0, [r7, #12]

    while(READ_BIT(PWR->CR1, PWR_CR1_DBP) == 0U)
 8002ec4:	e009      	b.n	8002eda <HAL_RCCEx_PeriphCLKConfig+0x1a6>
    {
      if((HAL_GetTick() - tickstart) > RCC_DBP_TIMEOUT_VALUE)
 8002ec6:	f7fd fc4f 	bl	8000768 <HAL_GetTick>
 8002eca:	4602      	mov	r2, r0
 8002ecc:	68fb      	ldr	r3, [r7, #12]
 8002ece:	1ad3      	subs	r3, r2, r3
 8002ed0:	2b02      	cmp	r3, #2
 8002ed2:	d902      	bls.n	8002eda <HAL_RCCEx_PeriphCLKConfig+0x1a6>
      {
        ret = HAL_TIMEOUT;
 8002ed4:	2303      	movs	r3, #3
 8002ed6:	74fb      	strb	r3, [r7, #19]
        break;
 8002ed8:	e005      	b.n	8002ee6 <HAL_RCCEx_PeriphCLKConfig+0x1b2>
    while(READ_BIT(PWR->CR1, PWR_CR1_DBP) == 0U)
 8002eda:	4b31      	ldr	r3, [pc, #196]	@ (8002fa0 <HAL_RCCEx_PeriphCLKConfig+0x26c>)
 8002edc:	681b      	ldr	r3, [r3, #0]
 8002ede:	f403 7380 	and.w	r3, r3, #256	@ 0x100
 8002ee2:	2b00      	cmp	r3, #0
 8002ee4:	d0ef      	beq.n	8002ec6 <HAL_RCCEx_PeriphCLKConfig+0x192>
      }
    }

    if(ret == HAL_OK)
 8002ee6:	7cfb      	ldrb	r3, [r7, #19]
 8002ee8:	2b00      	cmp	r3, #0
 8002eea:	d15b      	bne.n	8002fa4 <HAL_RCCEx_PeriphCLKConfig+0x270>
    {
      /* Reset the Backup domain only if the RTC Clock source selection is modified from default */
      tmpregister = READ_BIT(RCC->BDCR, RCC_BDCR_RTCSEL);
 8002eec:	4b2b      	ldr	r3, [pc, #172]	@ (8002f9c <HAL_RCCEx_PeriphCLKConfig+0x268>)
 8002eee:	f8d3 3090 	ldr.w	r3, [r3, #144]	@ 0x90
 8002ef2:	f403 7340 	and.w	r3, r3, #768	@ 0x300
 8002ef6:	617b      	str	r3, [r7, #20]

      if((tmpregister != RCC_RTCCLKSOURCE_NONE) && (tmpregister != PeriphClkInit->RTCClockSelection))
 8002ef8:	697b      	ldr	r3, [r7, #20]
 8002efa:	2b00      	cmp	r3, #0
 8002efc:	d01f      	beq.n	8002f3e <HAL_RCCEx_PeriphCLKConfig+0x20a>
 8002efe:	687b      	ldr	r3, [r7, #4]
 8002f00:	f8d3 3090 	ldr.w	r3, [r3, #144]	@ 0x90
 8002f04:	697a      	ldr	r2, [r7, #20]
 8002f06:	429a      	cmp	r2, r3
 8002f08:	d019      	beq.n	8002f3e <HAL_RCCEx_PeriphCLKConfig+0x20a>
      {
        /* Store the content of BDCR register before the reset of Backup Domain */
        tmpregister = READ_BIT(RCC->BDCR, ~(RCC_BDCR_RTCSEL));
 8002f0a:	4b24      	ldr	r3, [pc, #144]	@ (8002f9c <HAL_RCCEx_PeriphCLKConfig+0x268>)
 8002f0c:	f8d3 3090 	ldr.w	r3, [r3, #144]	@ 0x90
 8002f10:	f423 7340 	bic.w	r3, r3, #768	@ 0x300
 8002f14:	617b      	str	r3, [r7, #20]
        /* RTC Clock selection can be changed only if the Backup Domain is reset */
        __HAL_RCC_BACKUPRESET_FORCE();
 8002f16:	4b21      	ldr	r3, [pc, #132]	@ (8002f9c <HAL_RCCEx_PeriphCLKConfig+0x268>)
 8002f18:	f8d3 3090 	ldr.w	r3, [r3, #144]	@ 0x90
 8002f1c:	4a1f      	ldr	r2, [pc, #124]	@ (8002f9c <HAL_RCCEx_PeriphCLKConfig+0x268>)
 8002f1e:	f443 3380 	orr.w	r3, r3, #65536	@ 0x10000
 8002f22:	f8c2 3090 	str.w	r3, [r2, #144]	@ 0x90
        __HAL_RCC_BACKUPRESET_RELEASE();
 8002f26:	4b1d      	ldr	r3, [pc, #116]	@ (8002f9c <HAL_RCCEx_PeriphCLKConfig+0x268>)
 8002f28:	f8d3 3090 	ldr.w	r3, [r3, #144]	@ 0x90
 8002f2c:	4a1b      	ldr	r2, [pc, #108]	@ (8002f9c <HAL_RCCEx_PeriphCLKConfig+0x268>)
 8002f2e:	f423 3380 	bic.w	r3, r3, #65536	@ 0x10000
 8002f32:	f8c2 3090 	str.w	r3, [r2, #144]	@ 0x90
        /* Restore the Content of BDCR register */
        RCC->BDCR = tmpregister;
 8002f36:	4a19      	ldr	r2, [pc, #100]	@ (8002f9c <HAL_RCCEx_PeriphCLKConfig+0x268>)
 8002f38:	697b      	ldr	r3, [r7, #20]
 8002f3a:	f8c2 3090 	str.w	r3, [r2, #144]	@ 0x90
      }

      /* Wait for LSE reactivation if LSE was enable prior to Backup Domain reset */
      if (HAL_IS_BIT_SET(tmpregister, RCC_BDCR_LSEON))
 8002f3e:	697b      	ldr	r3, [r7, #20]
 8002f40:	f003 0301 	and.w	r3, r3, #1
 8002f44:	2b00      	cmp	r3, #0
 8002f46:	d016      	beq.n	8002f76 <HAL_RCCEx_PeriphCLKConfig+0x242>
      {
        /* Get Start Tick*/
        tickstart = HAL_GetTick();
 8002f48:	f7fd fc0e 	bl	8000768 <HAL_GetTick>
 8002f4c:	60f8      	str	r0, [r7, #12]

        /* Wait till LSE is ready */
        while(READ_BIT(RCC->BDCR, RCC_BDCR_LSERDY) == 0U)
 8002f4e:	e00b      	b.n	8002f68 <HAL_RCCEx_PeriphCLKConfig+0x234>
        {
          if((HAL_GetTick() - tickstart) > RCC_LSE_TIMEOUT_VALUE)
 8002f50:	f7fd fc0a 	bl	8000768 <HAL_GetTick>
 8002f54:	4602      	mov	r2, r0
 8002f56:	68fb      	ldr	r3, [r7, #12]
 8002f58:	1ad3      	subs	r3, r2, r3
 8002f5a:	f241 3288 	movw	r2, #5000	@ 0x1388
 8002f5e:	4293      	cmp	r3, r2
 8002f60:	d902      	bls.n	8002f68 <HAL_RCCEx_PeriphCLKConfig+0x234>
          {
            ret = HAL_TIMEOUT;
 8002f62:	2303      	movs	r3, #3
 8002f64:	74fb      	strb	r3, [r7, #19]
            break;
 8002f66:	e006      	b.n	8002f76 <HAL_RCCEx_PeriphCLKConfig+0x242>
        while(READ_BIT(RCC->BDCR, RCC_BDCR_LSERDY) == 0U)
 8002f68:	4b0c      	ldr	r3, [pc, #48]	@ (8002f9c <HAL_RCCEx_PeriphCLKConfig+0x268>)
 8002f6a:	f8d3 3090 	ldr.w	r3, [r3, #144]	@ 0x90
 8002f6e:	f003 0302 	and.w	r3, r3, #2
 8002f72:	2b00      	cmp	r3, #0
 8002f74:	d0ec      	beq.n	8002f50 <HAL_RCCEx_PeriphCLKConfig+0x21c>
          }
        }
      }

      if(ret == HAL_OK)
 8002f76:	7cfb      	ldrb	r3, [r7, #19]
 8002f78:	2b00      	cmp	r3, #0
 8002f7a:	d10c      	bne.n	8002f96 <HAL_RCCEx_PeriphCLKConfig+0x262>
      {
        /* Apply new RTC clock source selection */
        __HAL_RCC_RTC_CONFIG(PeriphClkInit->RTCClockSelection);
 8002f7c:	4b07      	ldr	r3, [pc, #28]	@ (8002f9c <HAL_RCCEx_PeriphCLKConfig+0x268>)
 8002f7e:	f8d3 3090 	ldr.w	r3, [r3, #144]	@ 0x90
 8002f82:	f423 7240 	bic.w	r2, r3, #768	@ 0x300
 8002f86:	687b      	ldr	r3, [r7, #4]
 8002f88:	f8d3 3090 	ldr.w	r3, [r3, #144]	@ 0x90
 8002f8c:	4903      	ldr	r1, [pc, #12]	@ (8002f9c <HAL_RCCEx_PeriphCLKConfig+0x268>)
 8002f8e:	4313      	orrs	r3, r2
 8002f90:	f8c1 3090 	str.w	r3, [r1, #144]	@ 0x90
 8002f94:	e008      	b.n	8002fa8 <HAL_RCCEx_PeriphCLKConfig+0x274>
      }
      else
      {
        /* set overall return value */
        status = ret;
 8002f96:	7cfb      	ldrb	r3, [r7, #19]
 8002f98:	74bb      	strb	r3, [r7, #18]
 8002f9a:	e005      	b.n	8002fa8 <HAL_RCCEx_PeriphCLKConfig+0x274>
 8002f9c:	40021000 	.word	0x40021000
 8002fa0:	40007000 	.word	0x40007000
      }
    }
    else
    {
      /* set overall return value */
      status = ret;
 8002fa4:	7cfb      	ldrb	r3, [r7, #19]
 8002fa6:	74bb      	strb	r3, [r7, #18]
    }

    /* Restore clock configuration if changed */
    if(pwrclkchanged == SET)
 8002fa8:	7c7b      	ldrb	r3, [r7, #17]
 8002faa:	2b01      	cmp	r3, #1
 8002fac:	d105      	bne.n	8002fba <HAL_RCCEx_PeriphCLKConfig+0x286>
    {
      __HAL_RCC_PWR_CLK_DISABLE();
 8002fae:	4ba0      	ldr	r3, [pc, #640]	@ (8003230 <HAL_RCCEx_PeriphCLKConfig+0x4fc>)
 8002fb0:	6d9b      	ldr	r3, [r3, #88]	@ 0x58
 8002fb2:	4a9f      	ldr	r2, [pc, #636]	@ (8003230 <HAL_RCCEx_PeriphCLKConfig+0x4fc>)
 8002fb4:	f023 5380 	bic.w	r3, r3, #268435456	@ 0x10000000
 8002fb8:	6593      	str	r3, [r2, #88]	@ 0x58
    }
  }

  /*-------------------------- USART1 clock source configuration -------------------*/
  if(((PeriphClkInit->PeriphClockSelection) & RCC_PERIPHCLK_USART1) == RCC_PERIPHCLK_USART1)
 8002fba:	687b      	ldr	r3, [r7, #4]
 8002fbc:	681b      	ldr	r3, [r3, #0]
 8002fbe:	f003 0301 	and.w	r3, r3, #1
 8002fc2:	2b00      	cmp	r3, #0
 8002fc4:	d00a      	beq.n	8002fdc <HAL_RCCEx_PeriphCLKConfig+0x2a8>
  {
    /* Check the parameters */
    assert_param(IS_RCC_USART1CLKSOURCE(PeriphClkInit->Usart1ClockSelection));

    /* Configure the USART1 clock source */
    __HAL_RCC_USART1_CONFIG(PeriphClkInit->Usart1ClockSelection);
 8002fc6:	4b9a      	ldr	r3, [pc, #616]	@ (8003230 <HAL_RCCEx_PeriphCLKConfig+0x4fc>)
 8002fc8:	f8d3 3088 	ldr.w	r3, [r3, #136]	@ 0x88
 8002fcc:	f023 0203 	bic.w	r2, r3, #3
 8002fd0:	687b      	ldr	r3, [r7, #4]
 8002fd2:	6bdb      	ldr	r3, [r3, #60]	@ 0x3c
 8002fd4:	4996      	ldr	r1, [pc, #600]	@ (8003230 <HAL_RCCEx_PeriphCLKConfig+0x4fc>)
 8002fd6:	4313      	orrs	r3, r2
 8002fd8:	f8c1 3088 	str.w	r3, [r1, #136]	@ 0x88
  }

  /*-------------------------- USART2 clock source configuration -------------------*/
  if(((PeriphClkInit->PeriphClockSelection) & RCC_PERIPHCLK_USART2) == RCC_PERIPHCLK_USART2)
 8002fdc:	687b      	ldr	r3, [r7, #4]
 8002fde:	681b      	ldr	r3, [r3, #0]
 8002fe0:	f003 0302 	and.w	r3, r3, #2
 8002fe4:	2b00      	cmp	r3, #0
 8002fe6:	d00a      	beq.n	8002ffe <HAL_RCCEx_PeriphCLKConfig+0x2ca>
  {
    /* Check the parameters */
    assert_param(IS_RCC_USART2CLKSOURCE(PeriphClkInit->Usart2ClockSelection));

    /* Configure the USART2 clock source */
    __HAL_RCC_USART2_CONFIG(PeriphClkInit->Usart2ClockSelection);
 8002fe8:	4b91      	ldr	r3, [pc, #580]	@ (8003230 <HAL_RCCEx_PeriphCLKConfig+0x4fc>)
 8002fea:	f8d3 3088 	ldr.w	r3, [r3, #136]	@ 0x88
 8002fee:	f023 020c 	bic.w	r2, r3, #12
 8002ff2:	687b      	ldr	r3, [r7, #4]
 8002ff4:	6c1b      	ldr	r3, [r3, #64]	@ 0x40
 8002ff6:	498e      	ldr	r1, [pc, #568]	@ (8003230 <HAL_RCCEx_PeriphCLKConfig+0x4fc>)
 8002ff8:	4313      	orrs	r3, r2
 8002ffa:	f8c1 3088 	str.w	r3, [r1, #136]	@ 0x88
  }

#if defined(USART3)

  /*-------------------------- USART3 clock source configuration -------------------*/
  if(((PeriphClkInit->PeriphClockSelection) & RCC_PERIPHCLK_USART3) == RCC_PERIPHCLK_USART3)
 8002ffe:	687b      	ldr	r3, [r7, #4]
 8003000:	681b      	ldr	r3, [r3, #0]
 8003002:	f003 0304 	and.w	r3, r3, #4
 8003006:	2b00      	cmp	r3, #0
 8003008:	d00a      	beq.n	8003020 <HAL_RCCEx_PeriphCLKConfig+0x2ec>
  {
    /* Check the parameters */
    assert_param(IS_RCC_USART3CLKSOURCE(PeriphClkInit->Usart3ClockSelection));

    /* Configure the USART3 clock source */
    __HAL_RCC_USART3_CONFIG(PeriphClkInit->Usart3ClockSelection);
 800300a:	4b89      	ldr	r3, [pc, #548]	@ (8003230 <HAL_RCCEx_PeriphCLKConfig+0x4fc>)
 800300c:	f8d3 3088 	ldr.w	r3, [r3, #136]	@ 0x88
 8003010:	f023 0230 	bic.w	r2, r3, #48	@ 0x30
 8003014:	687b      	ldr	r3, [r7, #4]
 8003016:	6c5b      	ldr	r3, [r3, #68]	@ 0x44
 8003018:	4985      	ldr	r1, [pc, #532]	@ (8003230 <HAL_RCCEx_PeriphCLKConfig+0x4fc>)
 800301a:	4313      	orrs	r3, r2
 800301c:	f8c1 3088 	str.w	r3, [r1, #136]	@ 0x88
#endif /* USART3 */

#if defined(UART4)

  /*-------------------------- UART4 clock source configuration --------------------*/
  if(((PeriphClkInit->PeriphClockSelection) & RCC_PERIPHCLK_UART4) == RCC_PERIPHCLK_UART4)
 8003020:	687b      	ldr	r3, [r7, #4]
 8003022:	681b      	ldr	r3, [r3, #0]
 8003024:	f003 0308 	and.w	r3, r3, #8
 8003028:	2b00      	cmp	r3, #0
 800302a:	d00a      	beq.n	8003042 <HAL_RCCEx_PeriphCLKConfig+0x30e>
  {
    /* Check the parameters */
    assert_param(IS_RCC_UART4CLKSOURCE(PeriphClkInit->Uart4ClockSelection));

    /* Configure the UART4 clock source */
    __HAL_RCC_UART4_CONFIG(PeriphClkInit->Uart4ClockSelection);
 800302c:	4b80      	ldr	r3, [pc, #512]	@ (8003230 <HAL_RCCEx_PeriphCLKConfig+0x4fc>)
 800302e:	f8d3 3088 	ldr.w	r3, [r3, #136]	@ 0x88
 8003032:	f023 02c0 	bic.w	r2, r3, #192	@ 0xc0
 8003036:	687b      	ldr	r3, [r7, #4]
 8003038:	6c9b      	ldr	r3, [r3, #72]	@ 0x48
 800303a:	497d      	ldr	r1, [pc, #500]	@ (8003230 <HAL_RCCEx_PeriphCLKConfig+0x4fc>)
 800303c:	4313      	orrs	r3, r2
 800303e:	f8c1 3088 	str.w	r3, [r1, #136]	@ 0x88
#endif /* UART4 */

#if defined(UART5)

  /*-------------------------- UART5 clock source configuration --------------------*/
  if(((PeriphClkInit->PeriphClockSelection) & RCC_PERIPHCLK_UART5) == RCC_PERIPHCLK_UART5)
 8003042:	687b      	ldr	r3, [r7, #4]
 8003044:	681b      	ldr	r3, [r3, #0]
 8003046:	f003 0310 	and.w	r3, r3, #16
 800304a:	2b00      	cmp	r3, #0
 800304c:	d00a      	beq.n	8003064 <HAL_RCCEx_PeriphCLKConfig+0x330>
  {
    /* Check the parameters */
    assert_param(IS_RCC_UART5CLKSOURCE(PeriphClkInit->Uart5ClockSelection));

    /* Configure the UART5 clock source */
    __HAL_RCC_UART5_CONFIG(PeriphClkInit->Uart5ClockSelection);
 800304e:	4b78      	ldr	r3, [pc, #480]	@ (8003230 <HAL_RCCEx_PeriphCLKConfig+0x4fc>)
 8003050:	f8d3 3088 	ldr.w	r3, [r3, #136]	@ 0x88
 8003054:	f423 7240 	bic.w	r2, r3, #768	@ 0x300
 8003058:	687b      	ldr	r3, [r7, #4]
 800305a:	6cdb      	ldr	r3, [r3, #76]	@ 0x4c
 800305c:	4974      	ldr	r1, [pc, #464]	@ (8003230 <HAL_RCCEx_PeriphCLKConfig+0x4fc>)
 800305e:	4313      	orrs	r3, r2
 8003060:	f8c1 3088 	str.w	r3, [r1, #136]	@ 0x88
  }

#endif /* UART5 */

  /*-------------------------- LPUART1 clock source configuration ------------------*/
  if(((PeriphClkInit->PeriphClockSelection) & RCC_PERIPHCLK_LPUART1) == RCC_PERIPHCLK_LPUART1)
 8003064:	687b      	ldr	r3, [r7, #4]
 8003066:	681b      	ldr	r3, [r3, #0]
 8003068:	f003 0320 	and.w	r3, r3, #32
 800306c:	2b00      	cmp	r3, #0
 800306e:	d00a      	beq.n	8003086 <HAL_RCCEx_PeriphCLKConfig+0x352>
  {
    /* Check the parameters */
    assert_param(IS_RCC_LPUART1CLKSOURCE(PeriphClkInit->Lpuart1ClockSelection));

    /* Configure the LPUART1 clock source */
    __HAL_RCC_LPUART1_CONFIG(PeriphClkInit->Lpuart1ClockSelection);
 8003070:	4b6f      	ldr	r3, [pc, #444]	@ (8003230 <HAL_RCCEx_PeriphCLKConfig+0x4fc>)
 8003072:	f8d3 3088 	ldr.w	r3, [r3, #136]	@ 0x88
 8003076:	f423 6240 	bic.w	r2, r3, #3072	@ 0xc00
 800307a:	687b      	ldr	r3, [r7, #4]
 800307c:	6d1b      	ldr	r3, [r3, #80]	@ 0x50
 800307e:	496c      	ldr	r1, [pc, #432]	@ (8003230 <HAL_RCCEx_PeriphCLKConfig+0x4fc>)
 8003080:	4313      	orrs	r3, r2
 8003082:	f8c1 3088 	str.w	r3, [r1, #136]	@ 0x88
  }

  /*-------------------------- LPTIM1 clock source configuration -------------------*/
  if(((PeriphClkInit->PeriphClockSelection) & RCC_PERIPHCLK_LPTIM1) == (RCC_PERIPHCLK_LPTIM1))
 8003086:	687b      	ldr	r3, [r7, #4]
 8003088:	681b      	ldr	r3, [r3, #0]
 800308a:	f403 7300 	and.w	r3, r3, #512	@ 0x200
 800308e:	2b00      	cmp	r3, #0
 8003090:	d00a      	beq.n	80030a8 <HAL_RCCEx_PeriphCLKConfig+0x374>
  {
    assert_param(IS_RCC_LPTIM1CLK(PeriphClkInit->Lptim1ClockSelection));
    __HAL_RCC_LPTIM1_CONFIG(PeriphClkInit->Lptim1ClockSelection);
 8003092:	4b67      	ldr	r3, [pc, #412]	@ (8003230 <HAL_RCCEx_PeriphCLKConfig+0x4fc>)
 8003094:	f8d3 3088 	ldr.w	r3, [r3, #136]	@ 0x88
 8003098:	f423 2240 	bic.w	r2, r3, #786432	@ 0xc0000
 800309c:	687b      	ldr	r3, [r7, #4]
 800309e:	6e5b      	ldr	r3, [r3, #100]	@ 0x64
 80030a0:	4963      	ldr	r1, [pc, #396]	@ (8003230 <HAL_RCCEx_PeriphCLKConfig+0x4fc>)
 80030a2:	4313      	orrs	r3, r2
 80030a4:	f8c1 3088 	str.w	r3, [r1, #136]	@ 0x88
  }

  /*-------------------------- LPTIM2 clock source configuration -------------------*/
  if(((PeriphClkInit->PeriphClockSelection) & RCC_PERIPHCLK_LPTIM2) == (RCC_PERIPHCLK_LPTIM2))
 80030a8:	687b      	ldr	r3, [r7, #4]
 80030aa:	681b      	ldr	r3, [r3, #0]
 80030ac:	f403 6380 	and.w	r3, r3, #1024	@ 0x400
 80030b0:	2b00      	cmp	r3, #0
 80030b2:	d00a      	beq.n	80030ca <HAL_RCCEx_PeriphCLKConfig+0x396>
  {
    assert_param(IS_RCC_LPTIM2CLK(PeriphClkInit->Lptim2ClockSelection));
    __HAL_RCC_LPTIM2_CONFIG(PeriphClkInit->Lptim2ClockSelection);
 80030b4:	4b5e      	ldr	r3, [pc, #376]	@ (8003230 <HAL_RCCEx_PeriphCLKConfig+0x4fc>)
 80030b6:	f8d3 3088 	ldr.w	r3, [r3, #136]	@ 0x88
 80030ba:	f423 1240 	bic.w	r2, r3, #3145728	@ 0x300000
 80030be:	687b      	ldr	r3, [r7, #4]
 80030c0:	6e9b      	ldr	r3, [r3, #104]	@ 0x68
 80030c2:	495b      	ldr	r1, [pc, #364]	@ (8003230 <HAL_RCCEx_PeriphCLKConfig+0x4fc>)
 80030c4:	4313      	orrs	r3, r2
 80030c6:	f8c1 3088 	str.w	r3, [r1, #136]	@ 0x88
  }

  /*-------------------------- I2C1 clock source configuration ---------------------*/
  if(((PeriphClkInit->PeriphClockSelection) & RCC_PERIPHCLK_I2C1) == RCC_PERIPHCLK_I2C1)
 80030ca:	687b      	ldr	r3, [r7, #4]
 80030cc:	681b      	ldr	r3, [r3, #0]
 80030ce:	f003 0340 	and.w	r3, r3, #64	@ 0x40
 80030d2:	2b00      	cmp	r3, #0
 80030d4:	d00a      	beq.n	80030ec <HAL_RCCEx_PeriphCLKConfig+0x3b8>
  {
    /* Check the parameters */
    assert_param(IS_RCC_I2C1CLKSOURCE(PeriphClkInit->I2c1ClockSelection));

    /* Configure the I2C1 clock source */
    __HAL_RCC_I2C1_CONFIG(PeriphClkInit->I2c1ClockSelection);
 80030d6:	4b56      	ldr	r3, [pc, #344]	@ (8003230 <HAL_RCCEx_PeriphCLKConfig+0x4fc>)
 80030d8:	f8d3 3088 	ldr.w	r3, [r3, #136]	@ 0x88
 80030dc:	f423 5240 	bic.w	r2, r3, #12288	@ 0x3000
 80030e0:	687b      	ldr	r3, [r7, #4]
 80030e2:	6d5b      	ldr	r3, [r3, #84]	@ 0x54
 80030e4:	4952      	ldr	r1, [pc, #328]	@ (8003230 <HAL_RCCEx_PeriphCLKConfig+0x4fc>)
 80030e6:	4313      	orrs	r3, r2
 80030e8:	f8c1 3088 	str.w	r3, [r1, #136]	@ 0x88
  }

#if defined(I2C2)

  /*-------------------------- I2C2 clock source configuration ---------------------*/
  if(((PeriphClkInit->PeriphClockSelection) & RCC_PERIPHCLK_I2C2) == RCC_PERIPHCLK_I2C2)
 80030ec:	687b      	ldr	r3, [r7, #4]
 80030ee:	681b      	ldr	r3, [r3, #0]
 80030f0:	f003 0380 	and.w	r3, r3, #128	@ 0x80
 80030f4:	2b00      	cmp	r3, #0
 80030f6:	d00a      	beq.n	800310e <HAL_RCCEx_PeriphCLKConfig+0x3da>
  {
    /* Check the parameters */
    assert_param(IS_RCC_I2C2CLKSOURCE(PeriphClkInit->I2c2ClockSelection));

    /* Configure the I2C2 clock source */
    __HAL_RCC_I2C2_CONFIG(PeriphClkInit->I2c2ClockSelection);
 80030f8:	4b4d      	ldr	r3, [pc, #308]	@ (8003230 <HAL_RCCEx_PeriphCLKConfig+0x4fc>)
 80030fa:	f8d3 3088 	ldr.w	r3, [r3, #136]	@ 0x88
 80030fe:	f423 4240 	bic.w	r2, r3, #49152	@ 0xc000
 8003102:	687b      	ldr	r3, [r7, #4]
 8003104:	6d9b      	ldr	r3, [r3, #88]	@ 0x58
 8003106:	494a      	ldr	r1, [pc, #296]	@ (8003230 <HAL_RCCEx_PeriphCLKConfig+0x4fc>)
 8003108:	4313      	orrs	r3, r2
 800310a:	f8c1 3088 	str.w	r3, [r1, #136]	@ 0x88
  }

#endif /* I2C2 */

  /*-------------------------- I2C3 clock source configuration ---------------------*/
  if(((PeriphClkInit->PeriphClockSelection) & RCC_PERIPHCLK_I2C3) == RCC_PERIPHCLK_I2C3)
 800310e:	687b      	ldr	r3, [r7, #4]
 8003110:	681b      	ldr	r3, [r3, #0]
 8003112:	f403 7380 	and.w	r3, r3, #256	@ 0x100
 8003116:	2b00      	cmp	r3, #0
 8003118:	d00a      	beq.n	8003130 <HAL_RCCEx_PeriphCLKConfig+0x3fc>
  {
    /* Check the parameters */
    assert_param(IS_RCC_I2C3CLKSOURCE(PeriphClkInit->I2c3ClockSelection));

    /* Configure the I2C3 clock source */
    __HAL_RCC_I2C3_CONFIG(PeriphClkInit->I2c3ClockSelection);
 800311a:	4b45      	ldr	r3, [pc, #276]	@ (8003230 <HAL_RCCEx_PeriphCLKConfig+0x4fc>)
 800311c:	f8d3 3088 	ldr.w	r3, [r3, #136]	@ 0x88
 8003120:	f423 3240 	bic.w	r2, r3, #196608	@ 0x30000
 8003124:	687b      	ldr	r3, [r7, #4]
 8003126:	6ddb      	ldr	r3, [r3, #92]	@ 0x5c
 8003128:	4941      	ldr	r1, [pc, #260]	@ (8003230 <HAL_RCCEx_PeriphCLKConfig+0x4fc>)
 800312a:	4313      	orrs	r3, r2
 800312c:	f8c1 3088 	str.w	r3, [r1, #136]	@ 0x88
  }

#if defined(I2C4)

  /*-------------------------- I2C4 clock source configuration ---------------------*/
  if(((PeriphClkInit->PeriphClockSelection) & RCC_PERIPHCLK_I2C4) == RCC_PERIPHCLK_I2C4)
 8003130:	687b      	ldr	r3, [r7, #4]
 8003132:	681b      	ldr	r3, [r3, #0]
 8003134:	f403 1380 	and.w	r3, r3, #1048576	@ 0x100000
 8003138:	2b00      	cmp	r3, #0
 800313a:	d00a      	beq.n	8003152 <HAL_RCCEx_PeriphCLKConfig+0x41e>
  {
    /* Check the parameters */
    assert_param(IS_RCC_I2C4CLKSOURCE(PeriphClkInit->I2c4ClockSelection));

    /* Configure the I2C4 clock source */
    __HAL_RCC_I2C4_CONFIG(PeriphClkInit->I2c4ClockSelection);
 800313c:	4b3c      	ldr	r3, [pc, #240]	@ (8003230 <HAL_RCCEx_PeriphCLKConfig+0x4fc>)
 800313e:	f8d3 309c 	ldr.w	r3, [r3, #156]	@ 0x9c
 8003142:	f023 0203 	bic.w	r2, r3, #3
 8003146:	687b      	ldr	r3, [r7, #4]
 8003148:	6e1b      	ldr	r3, [r3, #96]	@ 0x60
 800314a:	4939      	ldr	r1, [pc, #228]	@ (8003230 <HAL_RCCEx_PeriphCLKConfig+0x4fc>)
 800314c:	4313      	orrs	r3, r2
 800314e:	f8c1 309c 	str.w	r3, [r1, #156]	@ 0x9c
#endif /* I2C4 */

#if defined(USB_OTG_FS) || defined(USB)

  /*-------------------------- USB clock source configuration ----------------------*/
  if(((PeriphClkInit->PeriphClockSelection) & RCC_PERIPHCLK_USB) == (RCC_PERIPHCLK_USB))
 8003152:	687b      	ldr	r3, [r7, #4]
 8003154:	681b      	ldr	r3, [r3, #0]
 8003156:	f403 5300 	and.w	r3, r3, #8192	@ 0x2000
 800315a:	2b00      	cmp	r3, #0
 800315c:	d028      	beq.n	80031b0 <HAL_RCCEx_PeriphCLKConfig+0x47c>
  {
    assert_param(IS_RCC_USBCLKSOURCE(PeriphClkInit->UsbClockSelection));
    __HAL_RCC_USB_CONFIG(PeriphClkInit->UsbClockSelection);
 800315e:	4b34      	ldr	r3, [pc, #208]	@ (8003230 <HAL_RCCEx_PeriphCLKConfig+0x4fc>)
 8003160:	f8d3 3088 	ldr.w	r3, [r3, #136]	@ 0x88
 8003164:	f023 6240 	bic.w	r2, r3, #201326592	@ 0xc000000
 8003168:	687b      	ldr	r3, [r7, #4]
 800316a:	6f5b      	ldr	r3, [r3, #116]	@ 0x74
 800316c:	4930      	ldr	r1, [pc, #192]	@ (8003230 <HAL_RCCEx_PeriphCLKConfig+0x4fc>)
 800316e:	4313      	orrs	r3, r2
 8003170:	f8c1 3088 	str.w	r3, [r1, #136]	@ 0x88

    if(PeriphClkInit->UsbClockSelection == RCC_USBCLKSOURCE_PLL)
 8003174:	687b      	ldr	r3, [r7, #4]
 8003176:	6f5b      	ldr	r3, [r3, #116]	@ 0x74
 8003178:	f1b3 6f00 	cmp.w	r3, #134217728	@ 0x8000000
 800317c:	d106      	bne.n	800318c <HAL_RCCEx_PeriphCLKConfig+0x458>
    {
      /* Enable PLL48M1CLK output clock */
      __HAL_RCC_PLLCLKOUT_ENABLE(RCC_PLL_48M1CLK);
 800317e:	4b2c      	ldr	r3, [pc, #176]	@ (8003230 <HAL_RCCEx_PeriphCLKConfig+0x4fc>)
 8003180:	68db      	ldr	r3, [r3, #12]
 8003182:	4a2b      	ldr	r2, [pc, #172]	@ (8003230 <HAL_RCCEx_PeriphCLKConfig+0x4fc>)
 8003184:	f443 1380 	orr.w	r3, r3, #1048576	@ 0x100000
 8003188:	60d3      	str	r3, [r2, #12]
 800318a:	e011      	b.n	80031b0 <HAL_RCCEx_PeriphCLKConfig+0x47c>
    }
    else
    {
#if defined(RCC_PLLSAI1_SUPPORT)
      if(PeriphClkInit->UsbClockSelection == RCC_USBCLKSOURCE_PLLSAI1)
 800318c:	687b      	ldr	r3, [r7, #4]
 800318e:	6f5b      	ldr	r3, [r3, #116]	@ 0x74
 8003190:	f1b3 6f80 	cmp.w	r3, #67108864	@ 0x4000000
 8003194:	d10c      	bne.n	80031b0 <HAL_RCCEx_PeriphCLKConfig+0x47c>
      {
        /* PLLSAI1 input clock, parameters M, N & Q configuration and clock output (PLLSAI1ClockOut) */
        ret = RCCEx_PLLSAI1_Config(&(PeriphClkInit->PLLSAI1), DIVIDER_Q_UPDATE);
 8003196:	687b      	ldr	r3, [r7, #4]
 8003198:	3304      	adds	r3, #4
 800319a:	2101      	movs	r1, #1
 800319c:	4618      	mov	r0, r3
 800319e:	f000 f8f9 	bl	8003394 <RCCEx_PLLSAI1_Config>
 80031a2:	4603      	mov	r3, r0
 80031a4:	74fb      	strb	r3, [r7, #19]

        if(ret != HAL_OK)
 80031a6:	7cfb      	ldrb	r3, [r7, #19]
 80031a8:	2b00      	cmp	r3, #0
 80031aa:	d001      	beq.n	80031b0 <HAL_RCCEx_PeriphCLKConfig+0x47c>
        {
          /* set overall return value */
          status = ret;
 80031ac:	7cfb      	ldrb	r3, [r7, #19]
 80031ae:	74bb      	strb	r3, [r7, #18]
#endif /* USB_OTG_FS || USB */

#if defined(SDMMC1)

  /*-------------------------- SDMMC1 clock source configuration -------------------*/
  if(((PeriphClkInit->PeriphClockSelection) & RCC_PERIPHCLK_SDMMC1) == (RCC_PERIPHCLK_SDMMC1))
 80031b0:	687b      	ldr	r3, [r7, #4]
 80031b2:	681b      	ldr	r3, [r3, #0]
 80031b4:	f403 2300 	and.w	r3, r3, #524288	@ 0x80000
 80031b8:	2b00      	cmp	r3, #0
 80031ba:	d04d      	beq.n	8003258 <HAL_RCCEx_PeriphCLKConfig+0x524>
  {
    assert_param(IS_RCC_SDMMC1CLKSOURCE(PeriphClkInit->Sdmmc1ClockSelection));
    __HAL_RCC_SDMMC1_CONFIG(PeriphClkInit->Sdmmc1ClockSelection);
 80031bc:	687b      	ldr	r3, [r7, #4]
 80031be:	6f9b      	ldr	r3, [r3, #120]	@ 0x78
 80031c0:	f5b3 4f80 	cmp.w	r3, #16384	@ 0x4000
 80031c4:	d108      	bne.n	80031d8 <HAL_RCCEx_PeriphCLKConfig+0x4a4>
 80031c6:	4b1a      	ldr	r3, [pc, #104]	@ (8003230 <HAL_RCCEx_PeriphCLKConfig+0x4fc>)
 80031c8:	f8d3 309c 	ldr.w	r3, [r3, #156]	@ 0x9c
 80031cc:	4a18      	ldr	r2, [pc, #96]	@ (8003230 <HAL_RCCEx_PeriphCLKConfig+0x4fc>)
 80031ce:	f443 4380 	orr.w	r3, r3, #16384	@ 0x4000
 80031d2:	f8c2 309c 	str.w	r3, [r2, #156]	@ 0x9c
 80031d6:	e012      	b.n	80031fe <HAL_RCCEx_PeriphCLKConfig+0x4ca>
 80031d8:	4b15      	ldr	r3, [pc, #84]	@ (8003230 <HAL_RCCEx_PeriphCLKConfig+0x4fc>)
 80031da:	f8d3 309c 	ldr.w	r3, [r3, #156]	@ 0x9c
 80031de:	4a14      	ldr	r2, [pc, #80]	@ (8003230 <HAL_RCCEx_PeriphCLKConfig+0x4fc>)
 80031e0:	f423 4380 	bic.w	r3, r3, #16384	@ 0x4000
 80031e4:	f8c2 309c 	str.w	r3, [r2, #156]	@ 0x9c
 80031e8:	4b11      	ldr	r3, [pc, #68]	@ (8003230 <HAL_RCCEx_PeriphCLKConfig+0x4fc>)
 80031ea:	f8d3 3088 	ldr.w	r3, [r3, #136]	@ 0x88
 80031ee:	f023 6240 	bic.w	r2, r3, #201326592	@ 0xc000000
 80031f2:	687b      	ldr	r3, [r7, #4]
 80031f4:	6f9b      	ldr	r3, [r3, #120]	@ 0x78
 80031f6:	490e      	ldr	r1, [pc, #56]	@ (8003230 <HAL_RCCEx_PeriphCLKConfig+0x4fc>)
 80031f8:	4313      	orrs	r3, r2
 80031fa:	f8c1 3088 	str.w	r3, [r1, #136]	@ 0x88

    if(PeriphClkInit->Sdmmc1ClockSelection == RCC_SDMMC1CLKSOURCE_PLL)   /* PLL "Q" ? */
 80031fe:	687b      	ldr	r3, [r7, #4]
 8003200:	6f9b      	ldr	r3, [r3, #120]	@ 0x78
 8003202:	f1b3 6f00 	cmp.w	r3, #134217728	@ 0x8000000
 8003206:	d106      	bne.n	8003216 <HAL_RCCEx_PeriphCLKConfig+0x4e2>
    {
      /* Enable PLL48M1CLK output clock */
      __HAL_RCC_PLLCLKOUT_ENABLE(RCC_PLL_48M1CLK);
 8003208:	4b09      	ldr	r3, [pc, #36]	@ (8003230 <HAL_RCCEx_PeriphCLKConfig+0x4fc>)
 800320a:	68db      	ldr	r3, [r3, #12]
 800320c:	4a08      	ldr	r2, [pc, #32]	@ (8003230 <HAL_RCCEx_PeriphCLKConfig+0x4fc>)
 800320e:	f443 1380 	orr.w	r3, r3, #1048576	@ 0x100000
 8003212:	60d3      	str	r3, [r2, #12]
 8003214:	e020      	b.n	8003258 <HAL_RCCEx_PeriphCLKConfig+0x524>
    }
#if defined(RCC_CCIPR2_SDMMCSEL)
    else if(PeriphClkInit->Sdmmc1ClockSelection == RCC_SDMMC1CLKSOURCE_PLLP) /* PLL "P" ? */
 8003216:	687b      	ldr	r3, [r7, #4]
 8003218:	6f9b      	ldr	r3, [r3, #120]	@ 0x78
 800321a:	f5b3 4f80 	cmp.w	r3, #16384	@ 0x4000
 800321e:	d109      	bne.n	8003234 <HAL_RCCEx_PeriphCLKConfig+0x500>
    {
      /* Enable PLLSAI3CLK output */
      __HAL_RCC_PLLCLKOUT_ENABLE(RCC_PLL_SAI3CLK);
 8003220:	4b03      	ldr	r3, [pc, #12]	@ (8003230 <HAL_RCCEx_PeriphCLKConfig+0x4fc>)
 8003222:	68db      	ldr	r3, [r3, #12]
 8003224:	4a02      	ldr	r2, [pc, #8]	@ (8003230 <HAL_RCCEx_PeriphCLKConfig+0x4fc>)
 8003226:	f443 3380 	orr.w	r3, r3, #65536	@ 0x10000
 800322a:	60d3      	str	r3, [r2, #12]
 800322c:	e014      	b.n	8003258 <HAL_RCCEx_PeriphCLKConfig+0x524>
 800322e:	bf00      	nop
 8003230:	40021000 	.word	0x40021000
    }
#endif
    else if(PeriphClkInit->Sdmmc1ClockSelection == RCC_SDMMC1CLKSOURCE_PLLSAI1)
 8003234:	687b      	ldr	r3, [r7, #4]
 8003236:	6f9b      	ldr	r3, [r3, #120]	@ 0x78
 8003238:	f1b3 6f80 	cmp.w	r3, #67108864	@ 0x4000000
 800323c:	d10c      	bne.n	8003258 <HAL_RCCEx_PeriphCLKConfig+0x524>
    {
      /* PLLSAI1 input clock, parameters M, N & Q configuration and clock output (PLLSAI1ClockOut) */
      ret = RCCEx_PLLSAI1_Config(&(PeriphClkInit->PLLSAI1), DIVIDER_Q_UPDATE);
 800323e:	687b      	ldr	r3, [r7, #4]
 8003240:	3304      	adds	r3, #4
 8003242:	2101      	movs	r1, #1
 8003244:	4618      	mov	r0, r3
 8003246:	f000 f8a5 	bl	8003394 <RCCEx_PLLSAI1_Config>
 800324a:	4603      	mov	r3, r0
 800324c:	74fb      	strb	r3, [r7, #19]

      if(ret != HAL_OK)
 800324e:	7cfb      	ldrb	r3, [r7, #19]
 8003250:	2b00      	cmp	r3, #0
 8003252:	d001      	beq.n	8003258 <HAL_RCCEx_PeriphCLKConfig+0x524>
      {
        /* set overall return value */
        status = ret;
 8003254:	7cfb      	ldrb	r3, [r7, #19]
 8003256:	74bb      	strb	r3, [r7, #18]
  }

#endif /* SDMMC1 */

  /*-------------------------- RNG clock source configuration ----------------------*/
  if(((PeriphClkInit->PeriphClockSelection) & RCC_PERIPHCLK_RNG) == (RCC_PERIPHCLK_RNG))
 8003258:	687b      	ldr	r3, [r7, #4]
 800325a:	681b      	ldr	r3, [r3, #0]
 800325c:	f403 2380 	and.w	r3, r3, #262144	@ 0x40000
 8003260:	2b00      	cmp	r3, #0
 8003262:	d028      	beq.n	80032b6 <HAL_RCCEx_PeriphCLKConfig+0x582>
  {
    assert_param(IS_RCC_RNGCLKSOURCE(PeriphClkInit->RngClockSelection));
    __HAL_RCC_RNG_CONFIG(PeriphClkInit->RngClockSelection);
 8003264:	4b4a      	ldr	r3, [pc, #296]	@ (8003390 <HAL_RCCEx_PeriphCLKConfig+0x65c>)
 8003266:	f8d3 3088 	ldr.w	r3, [r3, #136]	@ 0x88
 800326a:	f023 6240 	bic.w	r2, r3, #201326592	@ 0xc000000
 800326e:	687b      	ldr	r3, [r7, #4]
 8003270:	6fdb      	ldr	r3, [r3, #124]	@ 0x7c
 8003272:	4947      	ldr	r1, [pc, #284]	@ (8003390 <HAL_RCCEx_PeriphCLKConfig+0x65c>)
 8003274:	4313      	orrs	r3, r2
 8003276:	f8c1 3088 	str.w	r3, [r1, #136]	@ 0x88

    if(PeriphClkInit->RngClockSelection == RCC_RNGCLKSOURCE_PLL)
 800327a:	687b      	ldr	r3, [r7, #4]
 800327c:	6fdb      	ldr	r3, [r3, #124]	@ 0x7c
 800327e:	f1b3 6f00 	cmp.w	r3, #134217728	@ 0x8000000
 8003282:	d106      	bne.n	8003292 <HAL_RCCEx_PeriphCLKConfig+0x55e>
    {
      /* Enable PLL48M1CLK output clock */
      __HAL_RCC_PLLCLKOUT_ENABLE(RCC_PLL_48M1CLK);
 8003284:	4b42      	ldr	r3, [pc, #264]	@ (8003390 <HAL_RCCEx_PeriphCLKConfig+0x65c>)
 8003286:	68db      	ldr	r3, [r3, #12]
 8003288:	4a41      	ldr	r2, [pc, #260]	@ (8003390 <HAL_RCCEx_PeriphCLKConfig+0x65c>)
 800328a:	f443 1380 	orr.w	r3, r3, #1048576	@ 0x100000
 800328e:	60d3      	str	r3, [r2, #12]
 8003290:	e011      	b.n	80032b6 <HAL_RCCEx_PeriphCLKConfig+0x582>
    }
#if defined(RCC_PLLSAI1_SUPPORT)
    else if(PeriphClkInit->RngClockSelection == RCC_RNGCLKSOURCE_PLLSAI1)
 8003292:	687b      	ldr	r3, [r7, #4]
 8003294:	6fdb      	ldr	r3, [r3, #124]	@ 0x7c
 8003296:	f1b3 6f80 	cmp.w	r3, #67108864	@ 0x4000000
 800329a:	d10c      	bne.n	80032b6 <HAL_RCCEx_PeriphCLKConfig+0x582>
    {
      /* PLLSAI1 input clock, parameters M, N & Q configuration and clock output (PLLSAI1ClockOut) */
      ret = RCCEx_PLLSAI1_Config(&(PeriphClkInit->PLLSAI1), DIVIDER_Q_UPDATE);
 800329c:	687b      	ldr	r3, [r7, #4]
 800329e:	3304      	adds	r3, #4
 80032a0:	2101      	movs	r1, #1
 80032a2:	4618      	mov	r0, r3
 80032a4:	f000 f876 	bl	8003394 <RCCEx_PLLSAI1_Config>
 80032a8:	4603      	mov	r3, r0
 80032aa:	74fb      	strb	r3, [r7, #19]

      if(ret != HAL_OK)
 80032ac:	7cfb      	ldrb	r3, [r7, #19]
 80032ae:	2b00      	cmp	r3, #0
 80032b0:	d001      	beq.n	80032b6 <HAL_RCCEx_PeriphCLKConfig+0x582>
      {
        /* set overall return value */
        status = ret;
 80032b2:	7cfb      	ldrb	r3, [r7, #19]
 80032b4:	74bb      	strb	r3, [r7, #18]
    }
  }

  /*-------------------------- ADC clock source configuration ----------------------*/
#if !defined(STM32L412xx) && !defined(STM32L422xx)
  if(((PeriphClkInit->PeriphClockSelection) & RCC_PERIPHCLK_ADC) == RCC_PERIPHCLK_ADC)
 80032b6:	687b      	ldr	r3, [r7, #4]
 80032b8:	681b      	ldr	r3, [r3, #0]
 80032ba:	f403 4380 	and.w	r3, r3, #16384	@ 0x4000
 80032be:	2b00      	cmp	r3, #0
 80032c0:	d01e      	beq.n	8003300 <HAL_RCCEx_PeriphCLKConfig+0x5cc>
  {
    /* Check the parameters */
    assert_param(IS_RCC_ADCCLKSOURCE(PeriphClkInit->AdcClockSelection));

    /* Configure the ADC interface clock source */
    __HAL_RCC_ADC_CONFIG(PeriphClkInit->AdcClockSelection);
 80032c2:	4b33      	ldr	r3, [pc, #204]	@ (8003390 <HAL_RCCEx_PeriphCLKConfig+0x65c>)
 80032c4:	f8d3 3088 	ldr.w	r3, [r3, #136]	@ 0x88
 80032c8:	f023 5240 	bic.w	r2, r3, #805306368	@ 0x30000000
 80032cc:	687b      	ldr	r3, [r7, #4]
 80032ce:	f8d3 3080 	ldr.w	r3, [r3, #128]	@ 0x80
 80032d2:	492f      	ldr	r1, [pc, #188]	@ (8003390 <HAL_RCCEx_PeriphCLKConfig+0x65c>)
 80032d4:	4313      	orrs	r3, r2
 80032d6:	f8c1 3088 	str.w	r3, [r1, #136]	@ 0x88

#if defined(RCC_PLLSAI1_SUPPORT)
    if(PeriphClkInit->AdcClockSelection == RCC_ADCCLKSOURCE_PLLSAI1)
 80032da:	687b      	ldr	r3, [r7, #4]
 80032dc:	f8d3 3080 	ldr.w	r3, [r3, #128]	@ 0x80
 80032e0:	f1b3 5f80 	cmp.w	r3, #268435456	@ 0x10000000
 80032e4:	d10c      	bne.n	8003300 <HAL_RCCEx_PeriphCLKConfig+0x5cc>
    {
      /* PLLSAI1 input clock, parameters M, N & R configuration and clock output (PLLSAI1ClockOut) */
      ret = RCCEx_PLLSAI1_Config(&(PeriphClkInit->PLLSAI1), DIVIDER_R_UPDATE);
 80032e6:	687b      	ldr	r3, [r7, #4]
 80032e8:	3304      	adds	r3, #4
 80032ea:	2102      	movs	r1, #2
 80032ec:	4618      	mov	r0, r3
 80032ee:	f000 f851 	bl	8003394 <RCCEx_PLLSAI1_Config>
 80032f2:	4603      	mov	r3, r0
 80032f4:	74fb      	strb	r3, [r7, #19]

      if(ret != HAL_OK)
 80032f6:	7cfb      	ldrb	r3, [r7, #19]
 80032f8:	2b00      	cmp	r3, #0
 80032fa:	d001      	beq.n	8003300 <HAL_RCCEx_PeriphCLKConfig+0x5cc>
      {
        /* set overall return value */
        status = ret;
 80032fc:	7cfb      	ldrb	r3, [r7, #19]
 80032fe:	74bb      	strb	r3, [r7, #18]
#endif /* SWPMI1 */

#if defined(DFSDM1_Filter0)

  /*-------------------------- DFSDM1 clock source configuration -------------------*/
  if(((PeriphClkInit->PeriphClockSelection) & RCC_PERIPHCLK_DFSDM1) == RCC_PERIPHCLK_DFSDM1)
 8003300:	687b      	ldr	r3, [r7, #4]
 8003302:	681b      	ldr	r3, [r3, #0]
 8003304:	f403 3380 	and.w	r3, r3, #65536	@ 0x10000
 8003308:	2b00      	cmp	r3, #0
 800330a:	d00b      	beq.n	8003324 <HAL_RCCEx_PeriphCLKConfig+0x5f0>
  {
    /* Check the parameters */
    assert_param(IS_RCC_DFSDM1CLKSOURCE(PeriphClkInit->Dfsdm1ClockSelection));

    /* Configure the DFSDM1 interface clock source */
    __HAL_RCC_DFSDM1_CONFIG(PeriphClkInit->Dfsdm1ClockSelection);
 800330c:	4b20      	ldr	r3, [pc, #128]	@ (8003390 <HAL_RCCEx_PeriphCLKConfig+0x65c>)
 800330e:	f8d3 309c 	ldr.w	r3, [r3, #156]	@ 0x9c
 8003312:	f023 0204 	bic.w	r2, r3, #4
 8003316:	687b      	ldr	r3, [r7, #4]
 8003318:	f8d3 3084 	ldr.w	r3, [r3, #132]	@ 0x84
 800331c:	491c      	ldr	r1, [pc, #112]	@ (8003390 <HAL_RCCEx_PeriphCLKConfig+0x65c>)
 800331e:	4313      	orrs	r3, r2
 8003320:	f8c1 309c 	str.w	r3, [r1, #156]	@ 0x9c
  }

#if defined(STM32L4P5xx) || defined(STM32L4Q5xx) || defined(STM32L4R5xx) || defined(STM32L4R7xx) || defined(STM32L4R9xx) || defined(STM32L4S5xx) || defined(STM32L4S7xx) || defined(STM32L4S9xx)
  /*-------------------------- DFSDM1 audio clock source configuration -------------*/
  if(((PeriphClkInit->PeriphClockSelection) & RCC_PERIPHCLK_DFSDM1AUDIO) == RCC_PERIPHCLK_DFSDM1AUDIO)
 8003324:	687b      	ldr	r3, [r7, #4]
 8003326:	681b      	ldr	r3, [r3, #0]
 8003328:	f403 1300 	and.w	r3, r3, #2097152	@ 0x200000
 800332c:	2b00      	cmp	r3, #0
 800332e:	d00b      	beq.n	8003348 <HAL_RCCEx_PeriphCLKConfig+0x614>
  {
    /* Check the parameters */
    assert_param(IS_RCC_DFSDM1AUDIOCLKSOURCE(PeriphClkInit->Dfsdm1AudioClockSelection));

    /* Configure the DFSDM1 interface audio clock source */
    __HAL_RCC_DFSDM1AUDIO_CONFIG(PeriphClkInit->Dfsdm1AudioClockSelection);
 8003330:	4b17      	ldr	r3, [pc, #92]	@ (8003390 <HAL_RCCEx_PeriphCLKConfig+0x65c>)
 8003332:	f8d3 309c 	ldr.w	r3, [r3, #156]	@ 0x9c
 8003336:	f023 0218 	bic.w	r2, r3, #24
 800333a:	687b      	ldr	r3, [r7, #4]
 800333c:	f8d3 3088 	ldr.w	r3, [r3, #136]	@ 0x88
 8003340:	4913      	ldr	r1, [pc, #76]	@ (8003390 <HAL_RCCEx_PeriphCLKConfig+0x65c>)
 8003342:	4313      	orrs	r3, r2
 8003344:	f8c1 309c 	str.w	r3, [r1, #156]	@ 0x9c
#endif /* DSI */

#if defined(OCTOSPI1) || defined(OCTOSPI2)

  /*-------------------------- OctoSPIx clock source configuration ----------------*/
  if(((PeriphClkInit->PeriphClockSelection) & RCC_PERIPHCLK_OSPI) == RCC_PERIPHCLK_OSPI)
 8003348:	687b      	ldr	r3, [r7, #4]
 800334a:	681b      	ldr	r3, [r3, #0]
 800334c:	f003 7380 	and.w	r3, r3, #16777216	@ 0x1000000
 8003350:	2b00      	cmp	r3, #0
 8003352:	d017      	beq.n	8003384 <HAL_RCCEx_PeriphCLKConfig+0x650>
  {
    /* Check the parameters */
    assert_param(IS_RCC_OSPICLKSOURCE(PeriphClkInit->OspiClockSelection));

    /* Configure the OctoSPI clock source */
    __HAL_RCC_OSPI_CONFIG(PeriphClkInit->OspiClockSelection);
 8003354:	4b0e      	ldr	r3, [pc, #56]	@ (8003390 <HAL_RCCEx_PeriphCLKConfig+0x65c>)
 8003356:	f8d3 309c 	ldr.w	r3, [r3, #156]	@ 0x9c
 800335a:	f423 1240 	bic.w	r2, r3, #3145728	@ 0x300000
 800335e:	687b      	ldr	r3, [r7, #4]
 8003360:	f8d3 308c 	ldr.w	r3, [r3, #140]	@ 0x8c
 8003364:	490a      	ldr	r1, [pc, #40]	@ (8003390 <HAL_RCCEx_PeriphCLKConfig+0x65c>)
 8003366:	4313      	orrs	r3, r2
 8003368:	f8c1 309c 	str.w	r3, [r1, #156]	@ 0x9c

    if(PeriphClkInit->OspiClockSelection == RCC_OSPICLKSOURCE_PLL)
 800336c:	687b      	ldr	r3, [r7, #4]
 800336e:	f8d3 308c 	ldr.w	r3, [r3, #140]	@ 0x8c
 8003372:	f5b3 1f00 	cmp.w	r3, #2097152	@ 0x200000
 8003376:	d105      	bne.n	8003384 <HAL_RCCEx_PeriphCLKConfig+0x650>
    {
      /* Enable PLL48M1CLK output */
      __HAL_RCC_PLLCLKOUT_ENABLE(RCC_PLL_48M1CLK);
 8003378:	4b05      	ldr	r3, [pc, #20]	@ (8003390 <HAL_RCCEx_PeriphCLKConfig+0x65c>)
 800337a:	68db      	ldr	r3, [r3, #12]
 800337c:	4a04      	ldr	r2, [pc, #16]	@ (8003390 <HAL_RCCEx_PeriphCLKConfig+0x65c>)
 800337e:	f443 1380 	orr.w	r3, r3, #1048576	@ 0x100000
 8003382:	60d3      	str	r3, [r2, #12]
    }
  }

#endif /* OCTOSPI1 || OCTOSPI2 */

  return status;
 8003384:	7cbb      	ldrb	r3, [r7, #18]
}
 8003386:	4618      	mov	r0, r3
 8003388:	3718      	adds	r7, #24
 800338a:	46bd      	mov	sp, r7
 800338c:	bd80      	pop	{r7, pc}
 800338e:	bf00      	nop
 8003390:	40021000 	.word	0x40021000

08003394 <RCCEx_PLLSAI1_Config>:
  * @note   PLLSAI1 is temporary disable to apply new parameters
  *
  * @retval HAL status
  */
static HAL_StatusTypeDef RCCEx_PLLSAI1_Config(RCC_PLLSAI1InitTypeDef *PllSai1, uint32_t Divider)
{
 8003394:	b580      	push	{r7, lr}
 8003396:	b084      	sub	sp, #16
 8003398:	af00      	add	r7, sp, #0
 800339a:	6078      	str	r0, [r7, #4]
 800339c:	6039      	str	r1, [r7, #0]
  uint32_t tickstart;
  HAL_StatusTypeDef status = HAL_OK;
 800339e:	2300      	movs	r3, #0
 80033a0:	73fb      	strb	r3, [r7, #15]
  assert_param(IS_RCC_PLLSAI1M_VALUE(PllSai1->PLLSAI1M));
  assert_param(IS_RCC_PLLSAI1N_VALUE(PllSai1->PLLSAI1N));
  assert_param(IS_RCC_PLLSAI1CLOCKOUT_VALUE(PllSai1->PLLSAI1ClockOut));

  /* Check that PLLSAI1 clock source and divider M can be applied */
  if(__HAL_RCC_GET_PLL_OSCSOURCE() != RCC_PLLSOURCE_NONE)
 80033a2:	4b72      	ldr	r3, [pc, #456]	@ (800356c <RCCEx_PLLSAI1_Config+0x1d8>)
 80033a4:	68db      	ldr	r3, [r3, #12]
 80033a6:	f003 0303 	and.w	r3, r3, #3
 80033aa:	2b00      	cmp	r3, #0
 80033ac:	d00e      	beq.n	80033cc <RCCEx_PLLSAI1_Config+0x38>
  {
    /* PLL clock source and divider M already set, check that no request for change  */
    if((__HAL_RCC_GET_PLL_OSCSOURCE() != PllSai1->PLLSAI1Source)
 80033ae:	4b6f      	ldr	r3, [pc, #444]	@ (800356c <RCCEx_PLLSAI1_Config+0x1d8>)
 80033b0:	68db      	ldr	r3, [r3, #12]
 80033b2:	f003 0203 	and.w	r2, r3, #3
 80033b6:	687b      	ldr	r3, [r7, #4]
 80033b8:	681b      	ldr	r3, [r3, #0]
 80033ba:	429a      	cmp	r2, r3
 80033bc:	d103      	bne.n	80033c6 <RCCEx_PLLSAI1_Config+0x32>
       ||
       (PllSai1->PLLSAI1Source == RCC_PLLSOURCE_NONE)
 80033be:	687b      	ldr	r3, [r7, #4]
 80033c0:	681b      	ldr	r3, [r3, #0]
       ||
 80033c2:	2b00      	cmp	r3, #0
 80033c4:	d142      	bne.n	800344c <RCCEx_PLLSAI1_Config+0xb8>
       ||
       (((READ_BIT(RCC->PLLCFGR, RCC_PLLCFGR_PLLM) >> RCC_PLLCFGR_PLLM_Pos) + 1U) != PllSai1->PLLSAI1M)
#endif
      )
    {
      status = HAL_ERROR;
 80033c6:	2301      	movs	r3, #1
 80033c8:	73fb      	strb	r3, [r7, #15]
 80033ca:	e03f      	b.n	800344c <RCCEx_PLLSAI1_Config+0xb8>
    }
  }
  else
  {
    /* Check PLLSAI1 clock source availability */
    switch(PllSai1->PLLSAI1Source)
 80033cc:	687b      	ldr	r3, [r7, #4]
 80033ce:	681b      	ldr	r3, [r3, #0]
 80033d0:	2b03      	cmp	r3, #3
 80033d2:	d018      	beq.n	8003406 <RCCEx_PLLSAI1_Config+0x72>
 80033d4:	2b03      	cmp	r3, #3
 80033d6:	d825      	bhi.n	8003424 <RCCEx_PLLSAI1_Config+0x90>
 80033d8:	2b01      	cmp	r3, #1
 80033da:	d002      	beq.n	80033e2 <RCCEx_PLLSAI1_Config+0x4e>
 80033dc:	2b02      	cmp	r3, #2
 80033de:	d009      	beq.n	80033f4 <RCCEx_PLLSAI1_Config+0x60>
 80033e0:	e020      	b.n	8003424 <RCCEx_PLLSAI1_Config+0x90>
    {
    case RCC_PLLSOURCE_MSI:
      if(HAL_IS_BIT_CLR(RCC->CR, RCC_CR_MSIRDY))
 80033e2:	4b62      	ldr	r3, [pc, #392]	@ (800356c <RCCEx_PLLSAI1_Config+0x1d8>)
 80033e4:	681b      	ldr	r3, [r3, #0]
 80033e6:	f003 0302 	and.w	r3, r3, #2
 80033ea:	2b00      	cmp	r3, #0
 80033ec:	d11d      	bne.n	800342a <RCCEx_PLLSAI1_Config+0x96>
      {
        status = HAL_ERROR;
 80033ee:	2301      	movs	r3, #1
 80033f0:	73fb      	strb	r3, [r7, #15]
      }
      break;
 80033f2:	e01a      	b.n	800342a <RCCEx_PLLSAI1_Config+0x96>
    case RCC_PLLSOURCE_HSI:
      if(HAL_IS_BIT_CLR(RCC->CR, RCC_CR_HSIRDY))
 80033f4:	4b5d      	ldr	r3, [pc, #372]	@ (800356c <RCCEx_PLLSAI1_Config+0x1d8>)
 80033f6:	681b      	ldr	r3, [r3, #0]
 80033f8:	f403 6380 	and.w	r3, r3, #1024	@ 0x400
 80033fc:	2b00      	cmp	r3, #0
 80033fe:	d116      	bne.n	800342e <RCCEx_PLLSAI1_Config+0x9a>
      {
        status = HAL_ERROR;
 8003400:	2301      	movs	r3, #1
 8003402:	73fb      	strb	r3, [r7, #15]
      }
      break;
 8003404:	e013      	b.n	800342e <RCCEx_PLLSAI1_Config+0x9a>
    case RCC_PLLSOURCE_HSE:
      if(HAL_IS_BIT_CLR(RCC->CR, RCC_CR_HSERDY))
 8003406:	4b59      	ldr	r3, [pc, #356]	@ (800356c <RCCEx_PLLSAI1_Config+0x1d8>)
 8003408:	681b      	ldr	r3, [r3, #0]
 800340a:	f403 3300 	and.w	r3, r3, #131072	@ 0x20000
 800340e:	2b00      	cmp	r3, #0
 8003410:	d10f      	bne.n	8003432 <RCCEx_PLLSAI1_Config+0x9e>
      {
        if(HAL_IS_BIT_CLR(RCC->CR, RCC_CR_HSEBYP))
 8003412:	4b56      	ldr	r3, [pc, #344]	@ (800356c <RCCEx_PLLSAI1_Config+0x1d8>)
 8003414:	681b      	ldr	r3, [r3, #0]
 8003416:	f403 2380 	and.w	r3, r3, #262144	@ 0x40000
 800341a:	2b00      	cmp	r3, #0
 800341c:	d109      	bne.n	8003432 <RCCEx_PLLSAI1_Config+0x9e>
        {
          status = HAL_ERROR;
 800341e:	2301      	movs	r3, #1
 8003420:	73fb      	strb	r3, [r7, #15]
        }
      }
      break;
 8003422:	e006      	b.n	8003432 <RCCEx_PLLSAI1_Config+0x9e>
    default:
      status = HAL_ERROR;
 8003424:	2301      	movs	r3, #1
 8003426:	73fb      	strb	r3, [r7, #15]
      break;
 8003428:	e004      	b.n	8003434 <RCCEx_PLLSAI1_Config+0xa0>
      break;
 800342a:	bf00      	nop
 800342c:	e002      	b.n	8003434 <RCCEx_PLLSAI1_Config+0xa0>
      break;
 800342e:	bf00      	nop
 8003430:	e000      	b.n	8003434 <RCCEx_PLLSAI1_Config+0xa0>
      break;
 8003432:	bf00      	nop
    }

    if(status == HAL_OK)
 8003434:	7bfb      	ldrb	r3, [r7, #15]
 8003436:	2b00      	cmp	r3, #0
 8003438:	d108      	bne.n	800344c <RCCEx_PLLSAI1_Config+0xb8>
    {
#if defined(RCC_PLLSAI1M_DIV_1_16_SUPPORT)
      /* Set PLLSAI1 clock source */
      MODIFY_REG(RCC->PLLCFGR, RCC_PLLCFGR_PLLSRC, PllSai1->PLLSAI1Source);
 800343a:	4b4c      	ldr	r3, [pc, #304]	@ (800356c <RCCEx_PLLSAI1_Config+0x1d8>)
 800343c:	68db      	ldr	r3, [r3, #12]
 800343e:	f023 0203 	bic.w	r2, r3, #3
 8003442:	687b      	ldr	r3, [r7, #4]
 8003444:	681b      	ldr	r3, [r3, #0]
 8003446:	4949      	ldr	r1, [pc, #292]	@ (800356c <RCCEx_PLLSAI1_Config+0x1d8>)
 8003448:	4313      	orrs	r3, r2
 800344a:	60cb      	str	r3, [r1, #12]
      MODIFY_REG(RCC->PLLCFGR, RCC_PLLCFGR_PLLSRC | RCC_PLLCFGR_PLLM, PllSai1->PLLSAI1Source | (PllSai1->PLLSAI1M - 1U) << RCC_PLLCFGR_PLLM_Pos);
#endif
    }
  }

  if(status == HAL_OK)
 800344c:	7bfb      	ldrb	r3, [r7, #15]
 800344e:	2b00      	cmp	r3, #0
 8003450:	f040 8086 	bne.w	8003560 <RCCEx_PLLSAI1_Config+0x1cc>
  {
    /* Disable the PLLSAI1 */
    __HAL_RCC_PLLSAI1_DISABLE();
 8003454:	4b45      	ldr	r3, [pc, #276]	@ (800356c <RCCEx_PLLSAI1_Config+0x1d8>)
 8003456:	681b      	ldr	r3, [r3, #0]
 8003458:	4a44      	ldr	r2, [pc, #272]	@ (800356c <RCCEx_PLLSAI1_Config+0x1d8>)
 800345a:	f023 6380 	bic.w	r3, r3, #67108864	@ 0x4000000
 800345e:	6013      	str	r3, [r2, #0]

    /* Get Start Tick*/
    tickstart = HAL_GetTick();
 8003460:	f7fd f982 	bl	8000768 <HAL_GetTick>
 8003464:	60b8      	str	r0, [r7, #8]

    /* Wait till PLLSAI1 is ready to be updated */
    while(READ_BIT(RCC->CR, RCC_CR_PLLSAI1RDY) != 0U)
 8003466:	e009      	b.n	800347c <RCCEx_PLLSAI1_Config+0xe8>
    {
      if((HAL_GetTick() - tickstart) > PLLSAI1_TIMEOUT_VALUE)
 8003468:	f7fd f97e 	bl	8000768 <HAL_GetTick>
 800346c:	4602      	mov	r2, r0
 800346e:	68bb      	ldr	r3, [r7, #8]
 8003470:	1ad3      	subs	r3, r2, r3
 8003472:	2b02      	cmp	r3, #2
 8003474:	d902      	bls.n	800347c <RCCEx_PLLSAI1_Config+0xe8>
      {
        status = HAL_TIMEOUT;
 8003476:	2303      	movs	r3, #3
 8003478:	73fb      	strb	r3, [r7, #15]
        break;
 800347a:	e005      	b.n	8003488 <RCCEx_PLLSAI1_Config+0xf4>
    while(READ_BIT(RCC->CR, RCC_CR_PLLSAI1RDY) != 0U)
 800347c:	4b3b      	ldr	r3, [pc, #236]	@ (800356c <RCCEx_PLLSAI1_Config+0x1d8>)
 800347e:	681b      	ldr	r3, [r3, #0]
 8003480:	f003 6300 	and.w	r3, r3, #134217728	@ 0x8000000
 8003484:	2b00      	cmp	r3, #0
 8003486:	d1ef      	bne.n	8003468 <RCCEx_PLLSAI1_Config+0xd4>
      }
    }

    if(status == HAL_OK)
 8003488:	7bfb      	ldrb	r3, [r7, #15]
 800348a:	2b00      	cmp	r3, #0
 800348c:	d168      	bne.n	8003560 <RCCEx_PLLSAI1_Config+0x1cc>
    {
      if(Divider == DIVIDER_P_UPDATE)
 800348e:	683b      	ldr	r3, [r7, #0]
 8003490:	2b00      	cmp	r3, #0
 8003492:	d113      	bne.n	80034bc <RCCEx_PLLSAI1_Config+0x128>
        assert_param(IS_RCC_PLLSAI1P_VALUE(PllSai1->PLLSAI1P));
#if defined(RCC_PLLSAI1M_DIV_1_16_SUPPORT)

        /* Configure the PLLSAI1 Division factor M, P and Multiplication factor N*/
#if defined(RCC_PLLSAI1P_DIV_2_31_SUPPORT)
        MODIFY_REG(RCC->PLLSAI1CFGR,
 8003494:	4b35      	ldr	r3, [pc, #212]	@ (800356c <RCCEx_PLLSAI1_Config+0x1d8>)
 8003496:	691a      	ldr	r2, [r3, #16]
 8003498:	4b35      	ldr	r3, [pc, #212]	@ (8003570 <RCCEx_PLLSAI1_Config+0x1dc>)
 800349a:	4013      	ands	r3, r2
 800349c:	687a      	ldr	r2, [r7, #4]
 800349e:	6892      	ldr	r2, [r2, #8]
 80034a0:	0211      	lsls	r1, r2, #8
 80034a2:	687a      	ldr	r2, [r7, #4]
 80034a4:	68d2      	ldr	r2, [r2, #12]
 80034a6:	06d2      	lsls	r2, r2, #27
 80034a8:	4311      	orrs	r1, r2
 80034aa:	687a      	ldr	r2, [r7, #4]
 80034ac:	6852      	ldr	r2, [r2, #4]
 80034ae:	3a01      	subs	r2, #1
 80034b0:	0112      	lsls	r2, r2, #4
 80034b2:	430a      	orrs	r2, r1
 80034b4:	492d      	ldr	r1, [pc, #180]	@ (800356c <RCCEx_PLLSAI1_Config+0x1d8>)
 80034b6:	4313      	orrs	r3, r2
 80034b8:	610b      	str	r3, [r1, #16]
 80034ba:	e02d      	b.n	8003518 <RCCEx_PLLSAI1_Config+0x184>
                   ((PllSai1->PLLSAI1P >> 4U) << RCC_PLLSAI1CFGR_PLLSAI1P_Pos));
#endif /* RCC_PLLSAI1P_DIV_2_31_SUPPORT */

#endif /* RCC_PLLSAI1M_DIV_1_16_SUPPORT */
      }
      else if(Divider == DIVIDER_Q_UPDATE)
 80034bc:	683b      	ldr	r3, [r7, #0]
 80034be:	2b01      	cmp	r3, #1
 80034c0:	d115      	bne.n	80034ee <RCCEx_PLLSAI1_Config+0x15a>
      {
        assert_param(IS_RCC_PLLSAI1Q_VALUE(PllSai1->PLLSAI1Q));
#if defined(RCC_PLLSAI1M_DIV_1_16_SUPPORT)
        /* Configure the PLLSAI1 Division factor M, Q and Multiplication factor N*/
        MODIFY_REG(RCC->PLLSAI1CFGR,
 80034c2:	4b2a      	ldr	r3, [pc, #168]	@ (800356c <RCCEx_PLLSAI1_Config+0x1d8>)
 80034c4:	691a      	ldr	r2, [r3, #16]
 80034c6:	4b2b      	ldr	r3, [pc, #172]	@ (8003574 <RCCEx_PLLSAI1_Config+0x1e0>)
 80034c8:	4013      	ands	r3, r2
 80034ca:	687a      	ldr	r2, [r7, #4]
 80034cc:	6892      	ldr	r2, [r2, #8]
 80034ce:	0211      	lsls	r1, r2, #8
 80034d0:	687a      	ldr	r2, [r7, #4]
 80034d2:	6912      	ldr	r2, [r2, #16]
 80034d4:	0852      	lsrs	r2, r2, #1
 80034d6:	3a01      	subs	r2, #1
 80034d8:	0552      	lsls	r2, r2, #21
 80034da:	4311      	orrs	r1, r2
 80034dc:	687a      	ldr	r2, [r7, #4]
 80034de:	6852      	ldr	r2, [r2, #4]
 80034e0:	3a01      	subs	r2, #1
 80034e2:	0112      	lsls	r2, r2, #4
 80034e4:	430a      	orrs	r2, r1
 80034e6:	4921      	ldr	r1, [pc, #132]	@ (800356c <RCCEx_PLLSAI1_Config+0x1d8>)
 80034e8:	4313      	orrs	r3, r2
 80034ea:	610b      	str	r3, [r1, #16]
 80034ec:	e014      	b.n	8003518 <RCCEx_PLLSAI1_Config+0x184>
      else
      {
        assert_param(IS_RCC_PLLSAI1R_VALUE(PllSai1->PLLSAI1R));
#if defined(RCC_PLLSAI1M_DIV_1_16_SUPPORT)
        /* Configure the PLLSAI1 Division factor M, R and Multiplication factor N*/
        MODIFY_REG(RCC->PLLSAI1CFGR,
 80034ee:	4b1f      	ldr	r3, [pc, #124]	@ (800356c <RCCEx_PLLSAI1_Config+0x1d8>)
 80034f0:	691a      	ldr	r2, [r3, #16]
 80034f2:	4b21      	ldr	r3, [pc, #132]	@ (8003578 <RCCEx_PLLSAI1_Config+0x1e4>)
 80034f4:	4013      	ands	r3, r2
 80034f6:	687a      	ldr	r2, [r7, #4]
 80034f8:	6892      	ldr	r2, [r2, #8]
 80034fa:	0211      	lsls	r1, r2, #8
 80034fc:	687a      	ldr	r2, [r7, #4]
 80034fe:	6952      	ldr	r2, [r2, #20]
 8003500:	0852      	lsrs	r2, r2, #1
 8003502:	3a01      	subs	r2, #1
 8003504:	0652      	lsls	r2, r2, #25
 8003506:	4311      	orrs	r1, r2
 8003508:	687a      	ldr	r2, [r7, #4]
 800350a:	6852      	ldr	r2, [r2, #4]
 800350c:	3a01      	subs	r2, #1
 800350e:	0112      	lsls	r2, r2, #4
 8003510:	430a      	orrs	r2, r1
 8003512:	4916      	ldr	r1, [pc, #88]	@ (800356c <RCCEx_PLLSAI1_Config+0x1d8>)
 8003514:	4313      	orrs	r3, r2
 8003516:	610b      	str	r3, [r1, #16]
                   (((PllSai1->PLLSAI1R >> 1U) - 1U) << RCC_PLLSAI1CFGR_PLLSAI1R_Pos));
#endif /* RCC_PLLSAI1M_DIV_1_16_SUPPORT */
      }

      /* Enable the PLLSAI1 again by setting PLLSAI1ON to 1*/
      __HAL_RCC_PLLSAI1_ENABLE();
 8003518:	4b14      	ldr	r3, [pc, #80]	@ (800356c <RCCEx_PLLSAI1_Config+0x1d8>)
 800351a:	681b      	ldr	r3, [r3, #0]
 800351c:	4a13      	ldr	r2, [pc, #76]	@ (800356c <RCCEx_PLLSAI1_Config+0x1d8>)
 800351e:	f043 6380 	orr.w	r3, r3, #67108864	@ 0x4000000
 8003522:	6013      	str	r3, [r2, #0]

      /* Get Start Tick*/
      tickstart = HAL_GetTick();
 8003524:	f7fd f920 	bl	8000768 <HAL_GetTick>
 8003528:	60b8      	str	r0, [r7, #8]

      /* Wait till PLLSAI1 is ready */
      while(READ_BIT(RCC->CR, RCC_CR_PLLSAI1RDY) == 0U)
 800352a:	e009      	b.n	8003540 <RCCEx_PLLSAI1_Config+0x1ac>
      {
        if((HAL_GetTick() - tickstart) > PLLSAI1_TIMEOUT_VALUE)
 800352c:	f7fd f91c 	bl	8000768 <HAL_GetTick>
 8003530:	4602      	mov	r2, r0
 8003532:	68bb      	ldr	r3, [r7, #8]
 8003534:	1ad3      	subs	r3, r2, r3
 8003536:	2b02      	cmp	r3, #2
 8003538:	d902      	bls.n	8003540 <RCCEx_PLLSAI1_Config+0x1ac>
        {
          status = HAL_TIMEOUT;
 800353a:	2303      	movs	r3, #3
 800353c:	73fb      	strb	r3, [r7, #15]
          break;
 800353e:	e005      	b.n	800354c <RCCEx_PLLSAI1_Config+0x1b8>
      while(READ_BIT(RCC->CR, RCC_CR_PLLSAI1RDY) == 0U)
 8003540:	4b0a      	ldr	r3, [pc, #40]	@ (800356c <RCCEx_PLLSAI1_Config+0x1d8>)
 8003542:	681b      	ldr	r3, [r3, #0]
 8003544:	f003 6300 	and.w	r3, r3, #134217728	@ 0x8000000
 8003548:	2b00      	cmp	r3, #0
 800354a:	d0ef      	beq.n	800352c <RCCEx_PLLSAI1_Config+0x198>
        }
      }

      if(status == HAL_OK)
 800354c:	7bfb      	ldrb	r3, [r7, #15]
 800354e:	2b00      	cmp	r3, #0
 8003550:	d106      	bne.n	8003560 <RCCEx_PLLSAI1_Config+0x1cc>
      {
        /* Configure the PLLSAI1 Clock output(s) */
        __HAL_RCC_PLLSAI1CLKOUT_ENABLE(PllSai1->PLLSAI1ClockOut);
 8003552:	4b06      	ldr	r3, [pc, #24]	@ (800356c <RCCEx_PLLSAI1_Config+0x1d8>)
 8003554:	691a      	ldr	r2, [r3, #16]
 8003556:	687b      	ldr	r3, [r7, #4]
 8003558:	699b      	ldr	r3, [r3, #24]
 800355a:	4904      	ldr	r1, [pc, #16]	@ (800356c <RCCEx_PLLSAI1_Config+0x1d8>)
 800355c:	4313      	orrs	r3, r2
 800355e:	610b      	str	r3, [r1, #16]
      }
    }
  }

  return status;
 8003560:	7bfb      	ldrb	r3, [r7, #15]
}
 8003562:	4618      	mov	r0, r3
 8003564:	3710      	adds	r7, #16
 8003566:	46bd      	mov	sp, r7
 8003568:	bd80      	pop	{r7, pc}
 800356a:	bf00      	nop
 800356c:	40021000 	.word	0x40021000
 8003570:	07ff800f 	.word	0x07ff800f
 8003574:	ff9f800f 	.word	0xff9f800f
 8003578:	f9ff800f 	.word	0xf9ff800f

0800357c <RCCEx_PLLSAI2_Config>:
  * @note   PLLSAI2 is temporary disable to apply new parameters
  *
  * @retval HAL status
  */
static HAL_StatusTypeDef RCCEx_PLLSAI2_Config(RCC_PLLSAI2InitTypeDef *PllSai2, uint32_t Divider)
{
 800357c:	b580      	push	{r7, lr}
 800357e:	b084      	sub	sp, #16
 8003580:	af00      	add	r7, sp, #0
 8003582:	6078      	str	r0, [r7, #4]
 8003584:	6039      	str	r1, [r7, #0]
  uint32_t tickstart;
  HAL_StatusTypeDef status = HAL_OK;
 8003586:	2300      	movs	r3, #0
 8003588:	73fb      	strb	r3, [r7, #15]
  assert_param(IS_RCC_PLLSAI2M_VALUE(PllSai2->PLLSAI2M));
  assert_param(IS_RCC_PLLSAI2N_VALUE(PllSai2->PLLSAI2N));
  assert_param(IS_RCC_PLLSAI2CLOCKOUT_VALUE(PllSai2->PLLSAI2ClockOut));

  /* Check that PLLSAI2 clock source and divider M can be applied */
  if(__HAL_RCC_GET_PLL_OSCSOURCE() != RCC_PLLSOURCE_NONE)
 800358a:	4b72      	ldr	r3, [pc, #456]	@ (8003754 <RCCEx_PLLSAI2_Config+0x1d8>)
 800358c:	68db      	ldr	r3, [r3, #12]
 800358e:	f003 0303 	and.w	r3, r3, #3
 8003592:	2b00      	cmp	r3, #0
 8003594:	d00e      	beq.n	80035b4 <RCCEx_PLLSAI2_Config+0x38>
  {
    /* PLL clock source and divider M already set, check that no request for change  */
    if((__HAL_RCC_GET_PLL_OSCSOURCE() != PllSai2->PLLSAI2Source)
 8003596:	4b6f      	ldr	r3, [pc, #444]	@ (8003754 <RCCEx_PLLSAI2_Config+0x1d8>)
 8003598:	68db      	ldr	r3, [r3, #12]
 800359a:	f003 0203 	and.w	r2, r3, #3
 800359e:	687b      	ldr	r3, [r7, #4]
 80035a0:	681b      	ldr	r3, [r3, #0]
 80035a2:	429a      	cmp	r2, r3
 80035a4:	d103      	bne.n	80035ae <RCCEx_PLLSAI2_Config+0x32>
       ||
       (PllSai2->PLLSAI2Source == RCC_PLLSOURCE_NONE)
 80035a6:	687b      	ldr	r3, [r7, #4]
 80035a8:	681b      	ldr	r3, [r3, #0]
       ||
 80035aa:	2b00      	cmp	r3, #0
 80035ac:	d142      	bne.n	8003634 <RCCEx_PLLSAI2_Config+0xb8>
       ||
       (((READ_BIT(RCC->PLLCFGR, RCC_PLLCFGR_PLLM) >> RCC_PLLCFGR_PLLM_Pos) + 1U) != PllSai2->PLLSAI2M)
#endif
      )
    {
      status = HAL_ERROR;
 80035ae:	2301      	movs	r3, #1
 80035b0:	73fb      	strb	r3, [r7, #15]
 80035b2:	e03f      	b.n	8003634 <RCCEx_PLLSAI2_Config+0xb8>
    }
  }
  else
  {
    /* Check PLLSAI2 clock source availability */
    switch(PllSai2->PLLSAI2Source)
 80035b4:	687b      	ldr	r3, [r7, #4]
 80035b6:	681b      	ldr	r3, [r3, #0]
 80035b8:	2b03      	cmp	r3, #3
 80035ba:	d018      	beq.n	80035ee <RCCEx_PLLSAI2_Config+0x72>
 80035bc:	2b03      	cmp	r3, #3
 80035be:	d825      	bhi.n	800360c <RCCEx_PLLSAI2_Config+0x90>
 80035c0:	2b01      	cmp	r3, #1
 80035c2:	d002      	beq.n	80035ca <RCCEx_PLLSAI2_Config+0x4e>
 80035c4:	2b02      	cmp	r3, #2
 80035c6:	d009      	beq.n	80035dc <RCCEx_PLLSAI2_Config+0x60>
 80035c8:	e020      	b.n	800360c <RCCEx_PLLSAI2_Config+0x90>
    {
    case RCC_PLLSOURCE_MSI:
      if(HAL_IS_BIT_CLR(RCC->CR, RCC_CR_MSIRDY))
 80035ca:	4b62      	ldr	r3, [pc, #392]	@ (8003754 <RCCEx_PLLSAI2_Config+0x1d8>)
 80035cc:	681b      	ldr	r3, [r3, #0]
 80035ce:	f003 0302 	and.w	r3, r3, #2
 80035d2:	2b00      	cmp	r3, #0
 80035d4:	d11d      	bne.n	8003612 <RCCEx_PLLSAI2_Config+0x96>
      {
        status = HAL_ERROR;
 80035d6:	2301      	movs	r3, #1
 80035d8:	73fb      	strb	r3, [r7, #15]
      }
      break;
 80035da:	e01a      	b.n	8003612 <RCCEx_PLLSAI2_Config+0x96>
    case RCC_PLLSOURCE_HSI:
      if(HAL_IS_BIT_CLR(RCC->CR, RCC_CR_HSIRDY))
 80035dc:	4b5d      	ldr	r3, [pc, #372]	@ (8003754 <RCCEx_PLLSAI2_Config+0x1d8>)
 80035de:	681b      	ldr	r3, [r3, #0]
 80035e0:	f403 6380 	and.w	r3, r3, #1024	@ 0x400
 80035e4:	2b00      	cmp	r3, #0
 80035e6:	d116      	bne.n	8003616 <RCCEx_PLLSAI2_Config+0x9a>
      {
        status = HAL_ERROR;
 80035e8:	2301      	movs	r3, #1
 80035ea:	73fb      	strb	r3, [r7, #15]
      }
      break;
 80035ec:	e013      	b.n	8003616 <RCCEx_PLLSAI2_Config+0x9a>
    case RCC_PLLSOURCE_HSE:
      if(HAL_IS_BIT_CLR(RCC->CR, RCC_CR_HSERDY))
 80035ee:	4b59      	ldr	r3, [pc, #356]	@ (8003754 <RCCEx_PLLSAI2_Config+0x1d8>)
 80035f0:	681b      	ldr	r3, [r3, #0]
 80035f2:	f403 3300 	and.w	r3, r3, #131072	@ 0x20000
 80035f6:	2b00      	cmp	r3, #0
 80035f8:	d10f      	bne.n	800361a <RCCEx_PLLSAI2_Config+0x9e>
      {
        if(HAL_IS_BIT_CLR(RCC->CR, RCC_CR_HSEBYP))
 80035fa:	4b56      	ldr	r3, [pc, #344]	@ (8003754 <RCCEx_PLLSAI2_Config+0x1d8>)
 80035fc:	681b      	ldr	r3, [r3, #0]
 80035fe:	f403 2380 	and.w	r3, r3, #262144	@ 0x40000
 8003602:	2b00      	cmp	r3, #0
 8003604:	d109      	bne.n	800361a <RCCEx_PLLSAI2_Config+0x9e>
        {
          status = HAL_ERROR;
 8003606:	2301      	movs	r3, #1
 8003608:	73fb      	strb	r3, [r7, #15]
        }
      }
      break;
 800360a:	e006      	b.n	800361a <RCCEx_PLLSAI2_Config+0x9e>
    default:
      status = HAL_ERROR;
 800360c:	2301      	movs	r3, #1
 800360e:	73fb      	strb	r3, [r7, #15]
      break;
 8003610:	e004      	b.n	800361c <RCCEx_PLLSAI2_Config+0xa0>
      break;
 8003612:	bf00      	nop
 8003614:	e002      	b.n	800361c <RCCEx_PLLSAI2_Config+0xa0>
      break;
 8003616:	bf00      	nop
 8003618:	e000      	b.n	800361c <RCCEx_PLLSAI2_Config+0xa0>
      break;
 800361a:	bf00      	nop
    }

    if(status == HAL_OK)
 800361c:	7bfb      	ldrb	r3, [r7, #15]
 800361e:	2b00      	cmp	r3, #0
 8003620:	d108      	bne.n	8003634 <RCCEx_PLLSAI2_Config+0xb8>
    {
#if defined(RCC_PLLSAI2M_DIV_1_16_SUPPORT)
      /* Set PLLSAI2 clock source */
      MODIFY_REG(RCC->PLLCFGR, RCC_PLLCFGR_PLLSRC, PllSai2->PLLSAI2Source);
 8003622:	4b4c      	ldr	r3, [pc, #304]	@ (8003754 <RCCEx_PLLSAI2_Config+0x1d8>)
 8003624:	68db      	ldr	r3, [r3, #12]
 8003626:	f023 0203 	bic.w	r2, r3, #3
 800362a:	687b      	ldr	r3, [r7, #4]
 800362c:	681b      	ldr	r3, [r3, #0]
 800362e:	4949      	ldr	r1, [pc, #292]	@ (8003754 <RCCEx_PLLSAI2_Config+0x1d8>)
 8003630:	4313      	orrs	r3, r2
 8003632:	60cb      	str	r3, [r1, #12]
      MODIFY_REG(RCC->PLLCFGR, RCC_PLLCFGR_PLLSRC | RCC_PLLCFGR_PLLM, PllSai2->PLLSAI2Source | (PllSai2->PLLSAI2M - 1U) << RCC_PLLCFGR_PLLM_Pos);
#endif
    }
  }

  if(status == HAL_OK)
 8003634:	7bfb      	ldrb	r3, [r7, #15]
 8003636:	2b00      	cmp	r3, #0
 8003638:	f040 8086 	bne.w	8003748 <RCCEx_PLLSAI2_Config+0x1cc>
  {
    /* Disable the PLLSAI2 */
    __HAL_RCC_PLLSAI2_DISABLE();
 800363c:	4b45      	ldr	r3, [pc, #276]	@ (8003754 <RCCEx_PLLSAI2_Config+0x1d8>)
 800363e:	681b      	ldr	r3, [r3, #0]
 8003640:	4a44      	ldr	r2, [pc, #272]	@ (8003754 <RCCEx_PLLSAI2_Config+0x1d8>)
 8003642:	f023 5380 	bic.w	r3, r3, #268435456	@ 0x10000000
 8003646:	6013      	str	r3, [r2, #0]

    /* Get Start Tick*/
    tickstart = HAL_GetTick();
 8003648:	f7fd f88e 	bl	8000768 <HAL_GetTick>
 800364c:	60b8      	str	r0, [r7, #8]

    /* Wait till PLLSAI2 is ready to be updated */
    while(READ_BIT(RCC->CR, RCC_CR_PLLSAI2RDY) != 0U)
 800364e:	e009      	b.n	8003664 <RCCEx_PLLSAI2_Config+0xe8>
    {
      if((HAL_GetTick() - tickstart) > PLLSAI2_TIMEOUT_VALUE)
 8003650:	f7fd f88a 	bl	8000768 <HAL_GetTick>
 8003654:	4602      	mov	r2, r0
 8003656:	68bb      	ldr	r3, [r7, #8]
 8003658:	1ad3      	subs	r3, r2, r3
 800365a:	2b02      	cmp	r3, #2
 800365c:	d902      	bls.n	8003664 <RCCEx_PLLSAI2_Config+0xe8>
      {
        status = HAL_TIMEOUT;
 800365e:	2303      	movs	r3, #3
 8003660:	73fb      	strb	r3, [r7, #15]
        break;
 8003662:	e005      	b.n	8003670 <RCCEx_PLLSAI2_Config+0xf4>
    while(READ_BIT(RCC->CR, RCC_CR_PLLSAI2RDY) != 0U)
 8003664:	4b3b      	ldr	r3, [pc, #236]	@ (8003754 <RCCEx_PLLSAI2_Config+0x1d8>)
 8003666:	681b      	ldr	r3, [r3, #0]
 8003668:	f003 5300 	and.w	r3, r3, #536870912	@ 0x20000000
 800366c:	2b00      	cmp	r3, #0
 800366e:	d1ef      	bne.n	8003650 <RCCEx_PLLSAI2_Config+0xd4>
      }
    }

    if(status == HAL_OK)
 8003670:	7bfb      	ldrb	r3, [r7, #15]
 8003672:	2b00      	cmp	r3, #0
 8003674:	d168      	bne.n	8003748 <RCCEx_PLLSAI2_Config+0x1cc>
    {
      if(Divider == DIVIDER_P_UPDATE)
 8003676:	683b      	ldr	r3, [r7, #0]
 8003678:	2b00      	cmp	r3, #0
 800367a:	d113      	bne.n	80036a4 <RCCEx_PLLSAI2_Config+0x128>
        assert_param(IS_RCC_PLLSAI2P_VALUE(PllSai2->PLLSAI2P));
#if defined(RCC_PLLSAI2M_DIV_1_16_SUPPORT)

        /* Configure the PLLSAI2 Division factor M, P and Multiplication factor N*/
#if defined(RCC_PLLSAI2P_DIV_2_31_SUPPORT)
        MODIFY_REG(RCC->PLLSAI2CFGR,
 800367c:	4b35      	ldr	r3, [pc, #212]	@ (8003754 <RCCEx_PLLSAI2_Config+0x1d8>)
 800367e:	695a      	ldr	r2, [r3, #20]
 8003680:	4b35      	ldr	r3, [pc, #212]	@ (8003758 <RCCEx_PLLSAI2_Config+0x1dc>)
 8003682:	4013      	ands	r3, r2
 8003684:	687a      	ldr	r2, [r7, #4]
 8003686:	6892      	ldr	r2, [r2, #8]
 8003688:	0211      	lsls	r1, r2, #8
 800368a:	687a      	ldr	r2, [r7, #4]
 800368c:	68d2      	ldr	r2, [r2, #12]
 800368e:	06d2      	lsls	r2, r2, #27
 8003690:	4311      	orrs	r1, r2
 8003692:	687a      	ldr	r2, [r7, #4]
 8003694:	6852      	ldr	r2, [r2, #4]
 8003696:	3a01      	subs	r2, #1
 8003698:	0112      	lsls	r2, r2, #4
 800369a:	430a      	orrs	r2, r1
 800369c:	492d      	ldr	r1, [pc, #180]	@ (8003754 <RCCEx_PLLSAI2_Config+0x1d8>)
 800369e:	4313      	orrs	r3, r2
 80036a0:	614b      	str	r3, [r1, #20]
 80036a2:	e02d      	b.n	8003700 <RCCEx_PLLSAI2_Config+0x184>
#endif /* RCC_PLLSAI2P_DIV_2_31_SUPPORT */

#endif /* RCC_PLLSAI2M_DIV_1_16_SUPPORT */
      }
#if defined(RCC_PLLSAI2Q_DIV_SUPPORT)
      else if(Divider == DIVIDER_Q_UPDATE)
 80036a4:	683b      	ldr	r3, [r7, #0]
 80036a6:	2b01      	cmp	r3, #1
 80036a8:	d115      	bne.n	80036d6 <RCCEx_PLLSAI2_Config+0x15a>
      {
        assert_param(IS_RCC_PLLSAI2Q_VALUE(PllSai2->PLLSAI2Q));
#if defined(RCC_PLLSAI2M_DIV_1_16_SUPPORT)
        /* Configure the PLLSAI2 Division factor M, Q and Multiplication factor N*/
        MODIFY_REG(RCC->PLLSAI2CFGR,
 80036aa:	4b2a      	ldr	r3, [pc, #168]	@ (8003754 <RCCEx_PLLSAI2_Config+0x1d8>)
 80036ac:	695a      	ldr	r2, [r3, #20]
 80036ae:	4b2b      	ldr	r3, [pc, #172]	@ (800375c <RCCEx_PLLSAI2_Config+0x1e0>)
 80036b0:	4013      	ands	r3, r2
 80036b2:	687a      	ldr	r2, [r7, #4]
 80036b4:	6892      	ldr	r2, [r2, #8]
 80036b6:	0211      	lsls	r1, r2, #8
 80036b8:	687a      	ldr	r2, [r7, #4]
 80036ba:	6912      	ldr	r2, [r2, #16]
 80036bc:	0852      	lsrs	r2, r2, #1
 80036be:	3a01      	subs	r2, #1
 80036c0:	0552      	lsls	r2, r2, #21
 80036c2:	4311      	orrs	r1, r2
 80036c4:	687a      	ldr	r2, [r7, #4]
 80036c6:	6852      	ldr	r2, [r2, #4]
 80036c8:	3a01      	subs	r2, #1
 80036ca:	0112      	lsls	r2, r2, #4
 80036cc:	430a      	orrs	r2, r1
 80036ce:	4921      	ldr	r1, [pc, #132]	@ (8003754 <RCCEx_PLLSAI2_Config+0x1d8>)
 80036d0:	4313      	orrs	r3, r2
 80036d2:	614b      	str	r3, [r1, #20]
 80036d4:	e014      	b.n	8003700 <RCCEx_PLLSAI2_Config+0x184>
      else
      {
        assert_param(IS_RCC_PLLSAI2R_VALUE(PllSai2->PLLSAI2R));
#if defined(RCC_PLLSAI2M_DIV_1_16_SUPPORT)
        /* Configure the PLLSAI2 Division factor M, R and Multiplication factor N*/
        MODIFY_REG(RCC->PLLSAI2CFGR,
 80036d6:	4b1f      	ldr	r3, [pc, #124]	@ (8003754 <RCCEx_PLLSAI2_Config+0x1d8>)
 80036d8:	695a      	ldr	r2, [r3, #20]
 80036da:	4b21      	ldr	r3, [pc, #132]	@ (8003760 <RCCEx_PLLSAI2_Config+0x1e4>)
 80036dc:	4013      	ands	r3, r2
 80036de:	687a      	ldr	r2, [r7, #4]
 80036e0:	6892      	ldr	r2, [r2, #8]
 80036e2:	0211      	lsls	r1, r2, #8
 80036e4:	687a      	ldr	r2, [r7, #4]
 80036e6:	6952      	ldr	r2, [r2, #20]
 80036e8:	0852      	lsrs	r2, r2, #1
 80036ea:	3a01      	subs	r2, #1
 80036ec:	0652      	lsls	r2, r2, #25
 80036ee:	4311      	orrs	r1, r2
 80036f0:	687a      	ldr	r2, [r7, #4]
 80036f2:	6852      	ldr	r2, [r2, #4]
 80036f4:	3a01      	subs	r2, #1
 80036f6:	0112      	lsls	r2, r2, #4
 80036f8:	430a      	orrs	r2, r1
 80036fa:	4916      	ldr	r1, [pc, #88]	@ (8003754 <RCCEx_PLLSAI2_Config+0x1d8>)
 80036fc:	4313      	orrs	r3, r2
 80036fe:	614b      	str	r3, [r1, #20]
                   (((PllSai2->PLLSAI2R >> 1U) - 1U) << RCC_PLLSAI2CFGR_PLLSAI2R_Pos));
#endif /* RCC_PLLSAI2M_DIV_1_16_SUPPORT */
      }

      /* Enable the PLLSAI2 again by setting PLLSAI2ON to 1*/
      __HAL_RCC_PLLSAI2_ENABLE();
 8003700:	4b14      	ldr	r3, [pc, #80]	@ (8003754 <RCCEx_PLLSAI2_Config+0x1d8>)
 8003702:	681b      	ldr	r3, [r3, #0]
 8003704:	4a13      	ldr	r2, [pc, #76]	@ (8003754 <RCCEx_PLLSAI2_Config+0x1d8>)
 8003706:	f043 5380 	orr.w	r3, r3, #268435456	@ 0x10000000
 800370a:	6013      	str	r3, [r2, #0]

      /* Get Start Tick*/
      tickstart = HAL_GetTick();
 800370c:	f7fd f82c 	bl	8000768 <HAL_GetTick>
 8003710:	60b8      	str	r0, [r7, #8]

      /* Wait till PLLSAI2 is ready */
      while(READ_BIT(RCC->CR, RCC_CR_PLLSAI2RDY) == 0U)
 8003712:	e009      	b.n	8003728 <RCCEx_PLLSAI2_Config+0x1ac>
      {
        if((HAL_GetTick() - tickstart) > PLLSAI2_TIMEOUT_VALUE)
 8003714:	f7fd f828 	bl	8000768 <HAL_GetTick>
 8003718:	4602      	mov	r2, r0
 800371a:	68bb      	ldr	r3, [r7, #8]
 800371c:	1ad3      	subs	r3, r2, r3
 800371e:	2b02      	cmp	r3, #2
 8003720:	d902      	bls.n	8003728 <RCCEx_PLLSAI2_Config+0x1ac>
        {
          status = HAL_TIMEOUT;
 8003722:	2303      	movs	r3, #3
 8003724:	73fb      	strb	r3, [r7, #15]
          break;
 8003726:	e005      	b.n	8003734 <RCCEx_PLLSAI2_Config+0x1b8>
      while(READ_BIT(RCC->CR, RCC_CR_PLLSAI2RDY) == 0U)
 8003728:	4b0a      	ldr	r3, [pc, #40]	@ (8003754 <RCCEx_PLLSAI2_Config+0x1d8>)
 800372a:	681b      	ldr	r3, [r3, #0]
 800372c:	f003 5300 	and.w	r3, r3, #536870912	@ 0x20000000
 8003730:	2b00      	cmp	r3, #0
 8003732:	d0ef      	beq.n	8003714 <RCCEx_PLLSAI2_Config+0x198>
        }
      }

      if(status == HAL_OK)
 8003734:	7bfb      	ldrb	r3, [r7, #15]
 8003736:	2b00      	cmp	r3, #0
 8003738:	d106      	bne.n	8003748 <RCCEx_PLLSAI2_Config+0x1cc>
      {
        /* Configure the PLLSAI2 Clock output(s) */
        __HAL_RCC_PLLSAI2CLKOUT_ENABLE(PllSai2->PLLSAI2ClockOut);
 800373a:	4b06      	ldr	r3, [pc, #24]	@ (8003754 <RCCEx_PLLSAI2_Config+0x1d8>)
 800373c:	695a      	ldr	r2, [r3, #20]
 800373e:	687b      	ldr	r3, [r7, #4]
 8003740:	699b      	ldr	r3, [r3, #24]
 8003742:	4904      	ldr	r1, [pc, #16]	@ (8003754 <RCCEx_PLLSAI2_Config+0x1d8>)
 8003744:	4313      	orrs	r3, r2
 8003746:	614b      	str	r3, [r1, #20]
      }
    }
  }

  return status;
 8003748:	7bfb      	ldrb	r3, [r7, #15]
}
 800374a:	4618      	mov	r0, r3
 800374c:	3710      	adds	r7, #16
 800374e:	46bd      	mov	sp, r7
 8003750:	bd80      	pop	{r7, pc}
 8003752:	bf00      	nop
 8003754:	40021000 	.word	0x40021000
 8003758:	07ff800f 	.word	0x07ff800f
 800375c:	ff9f800f 	.word	0xff9f800f
 8003760:	f9ff800f 	.word	0xf9ff800f

08003764 <memset>:
 8003764:	4402      	add	r2, r0
 8003766:	4603      	mov	r3, r0
 8003768:	4293      	cmp	r3, r2
 800376a:	d100      	bne.n	800376e <memset+0xa>
 800376c:	4770      	bx	lr
 800376e:	f803 1b01 	strb.w	r1, [r3], #1
 8003772:	e7f9      	b.n	8003768 <memset+0x4>

08003774 <__libc_init_array>:
 8003774:	b570      	push	{r4, r5, r6, lr}
 8003776:	4d0d      	ldr	r5, [pc, #52]	@ (80037ac <__libc_init_array+0x38>)
 8003778:	4c0d      	ldr	r4, [pc, #52]	@ (80037b0 <__libc_init_array+0x3c>)
 800377a:	1b64      	subs	r4, r4, r5
 800377c:	10a4      	asrs	r4, r4, #2
 800377e:	2600      	movs	r6, #0
 8003780:	42a6      	cmp	r6, r4
 8003782:	d109      	bne.n	8003798 <__libc_init_array+0x24>
 8003784:	4d0b      	ldr	r5, [pc, #44]	@ (80037b4 <__libc_init_array+0x40>)
 8003786:	4c0c      	ldr	r4, [pc, #48]	@ (80037b8 <__libc_init_array+0x44>)
 8003788:	f000 f818 	bl	80037bc <_init>
 800378c:	1b64      	subs	r4, r4, r5
 800378e:	10a4      	asrs	r4, r4, #2
 8003790:	2600      	movs	r6, #0
 8003792:	42a6      	cmp	r6, r4
 8003794:	d105      	bne.n	80037a2 <__libc_init_array+0x2e>
 8003796:	bd70      	pop	{r4, r5, r6, pc}
 8003798:	f855 3b04 	ldr.w	r3, [r5], #4
 800379c:	4798      	blx	r3
 800379e:	3601      	adds	r6, #1
 80037a0:	e7ee      	b.n	8003780 <__libc_init_array+0xc>
 80037a2:	f855 3b04 	ldr.w	r3, [r5], #4
 80037a6:	4798      	blx	r3
 80037a8:	3601      	adds	r6, #1
 80037aa:	e7f2      	b.n	8003792 <__libc_init_array+0x1e>
 80037ac:	08003814 	.word	0x08003814
 80037b0:	08003814 	.word	0x08003814
 80037b4:	08003814 	.word	0x08003814
 80037b8:	08003818 	.word	0x08003818

080037bc <_init>:
 80037bc:	b5f8      	push	{r3, r4, r5, r6, r7, lr}
 80037be:	bf00      	nop
 80037c0:	bcf8      	pop	{r3, r4, r5, r6, r7}
 80037c2:	bc08      	pop	{r3}
 80037c4:	469e      	mov	lr, r3
 80037c6:	4770      	bx	lr

080037c8 <_fini>:
 80037c8:	b5f8      	push	{r3, r4, r5, r6, r7, lr}
 80037ca:	bf00      	nop
 80037cc:	bcf8      	pop	{r3, r4, r5, r6, r7}
 80037ce:	bc08      	pop	{r3}
 80037d0:	469e      	mov	lr, r3
 80037d2:	4770      	bx	lr
